
../custom_tests/helloworld.elf:     file format elf32-littleriscv


Disassembly of section .text:

00010074 <register_fini>:
   10074:	ffff0797          	auipc	a5,0xffff0
   10078:	f8c78793          	addi	a5,a5,-116 # 0 <register_fini-0x10074>
   1007c:	00078863          	beqz	a5,1008c <register_fini+0x18>
   10080:	00000517          	auipc	a0,0x0
   10084:	14850513          	addi	a0,a0,328 # 101c8 <__libc_fini_array>
   10088:	0f80006f          	j	10180 <atexit>
   1008c:	00008067          	ret

00010090 <_start>:
   10090:	00005197          	auipc	gp,0x5
   10094:	db818193          	addi	gp,gp,-584 # 14e48 <__global_pointer$>
   10098:	04418513          	addi	a0,gp,68 # 14e8c <__malloc_max_total_mem>
   1009c:	09c18613          	addi	a2,gp,156 # 14ee4 <__BSS_END__>
   100a0:	40a60633          	sub	a2,a2,a0
   100a4:	00000593          	li	a1,0
   100a8:	214000ef          	jal	ra,102bc <memset>
   100ac:	00000517          	auipc	a0,0x0
   100b0:	11c50513          	addi	a0,a0,284 # 101c8 <__libc_fini_array>
   100b4:	0cc000ef          	jal	ra,10180 <atexit>
   100b8:	170000ef          	jal	ra,10228 <__libc_init_array>
   100bc:	00012503          	lw	a0,0(sp)
   100c0:	00410593          	addi	a1,sp,4
   100c4:	00000613          	li	a2,0
   100c8:	07c000ef          	jal	ra,10144 <main>
   100cc:	0c80006f          	j	10194 <exit>

000100d0 <__do_global_dtors_aux>:
   100d0:	0541c783          	lbu	a5,84(gp) # 14e9c <completed.5434>
   100d4:	04079463          	bnez	a5,1011c <__do_global_dtors_aux+0x4c>
   100d8:	ffff0797          	auipc	a5,0xffff0
   100dc:	f2878793          	addi	a5,a5,-216 # 0 <register_fini-0x10074>
   100e0:	02078863          	beqz	a5,10110 <__do_global_dtors_aux+0x40>
   100e4:	ff010113          	addi	sp,sp,-16
   100e8:	00004517          	auipc	a0,0x4
   100ec:	54c50513          	addi	a0,a0,1356 # 14634 <__FRAME_END__>
   100f0:	00112623          	sw	ra,12(sp)
   100f4:	00000097          	auipc	ra,0x0
   100f8:	000000e7          	jalr	zero # 0 <register_fini-0x10074>
   100fc:	00c12083          	lw	ra,12(sp)
   10100:	00100793          	li	a5,1
   10104:	04f18a23          	sb	a5,84(gp) # 14e9c <completed.5434>
   10108:	01010113          	addi	sp,sp,16
   1010c:	00008067          	ret
   10110:	00100793          	li	a5,1
   10114:	04f18a23          	sb	a5,84(gp) # 14e9c <completed.5434>
   10118:	00008067          	ret
   1011c:	00008067          	ret

00010120 <frame_dummy>:
   10120:	ffff0797          	auipc	a5,0xffff0
   10124:	ee078793          	addi	a5,a5,-288 # 0 <register_fini-0x10074>
   10128:	00078c63          	beqz	a5,10140 <frame_dummy+0x20>
   1012c:	05818593          	addi	a1,gp,88 # 14ea0 <object.5439>
   10130:	00004517          	auipc	a0,0x4
   10134:	50450513          	addi	a0,a0,1284 # 14634 <__FRAME_END__>
   10138:	00000317          	auipc	t1,0x0
   1013c:	00000067          	jr	zero # 0 <register_fini-0x10074>
   10140:	00008067          	ret

00010144 <main>:
   10144:	fe010113          	addi	sp,sp,-32
   10148:	00112e23          	sw	ra,28(sp)
   1014c:	00812c23          	sw	s0,24(sp)
   10150:	02010413          	addi	s0,sp,32
   10154:	fea42623          	sw	a0,-20(s0)
   10158:	feb42423          	sw	a1,-24(s0)
   1015c:	000137b7          	lui	a5,0x13
   10160:	62078513          	addi	a0,a5,1568 # 13620 <__modsi3+0x30>
   10164:	304000ef          	jal	ra,10468 <puts>
   10168:	00000793          	li	a5,0
   1016c:	00078513          	mv	a0,a5
   10170:	01c12083          	lw	ra,28(sp)
   10174:	01812403          	lw	s0,24(sp)
   10178:	02010113          	addi	sp,sp,32
   1017c:	00008067          	ret

00010180 <atexit>:
   10180:	00050593          	mv	a1,a0
   10184:	00000693          	li	a3,0
   10188:	00000613          	li	a2,0
   1018c:	00000513          	li	a0,0
   10190:	3740006f          	j	10504 <__register_exitproc>

00010194 <exit>:
   10194:	ff010113          	addi	sp,sp,-16
   10198:	00000593          	li	a1,0
   1019c:	00812423          	sw	s0,8(sp)
   101a0:	00112623          	sw	ra,12(sp)
   101a4:	00050413          	mv	s0,a0
   101a8:	3f8000ef          	jal	ra,105a0 <__call_exitprocs>
   101ac:	03018793          	addi	a5,gp,48 # 14e78 <_global_impure_ptr>
   101b0:	0007a503          	lw	a0,0(a5)
   101b4:	03c52783          	lw	a5,60(a0)
   101b8:	00078463          	beqz	a5,101c0 <exit+0x2c>
   101bc:	000780e7          	jalr	a5
   101c0:	00040513          	mv	a0,s0
   101c4:	050030ef          	jal	ra,13214 <_exit>

000101c8 <__libc_fini_array>:
   101c8:	ff010113          	addi	sp,sp,-16
   101cc:	00812423          	sw	s0,8(sp)
   101d0:	00004797          	auipc	a5,0x4
   101d4:	47078793          	addi	a5,a5,1136 # 14640 <__do_global_dtors_aux_fini_array_entry>
   101d8:	00004417          	auipc	s0,0x4
   101dc:	46c40413          	addi	s0,s0,1132 # 14644 <__fini_array_end>
   101e0:	40f40433          	sub	s0,s0,a5
   101e4:	00112623          	sw	ra,12(sp)
   101e8:	00912223          	sw	s1,4(sp)
   101ec:	40245413          	srai	s0,s0,0x2
   101f0:	02040263          	beqz	s0,10214 <__libc_fini_array+0x4c>
   101f4:	00241493          	slli	s1,s0,0x2
   101f8:	ffc48493          	addi	s1,s1,-4
   101fc:	00f484b3          	add	s1,s1,a5
   10200:	0004a783          	lw	a5,0(s1)
   10204:	fff40413          	addi	s0,s0,-1
   10208:	ffc48493          	addi	s1,s1,-4
   1020c:	000780e7          	jalr	a5
   10210:	fe0418e3          	bnez	s0,10200 <__libc_fini_array+0x38>
   10214:	00c12083          	lw	ra,12(sp)
   10218:	00812403          	lw	s0,8(sp)
   1021c:	00412483          	lw	s1,4(sp)
   10220:	01010113          	addi	sp,sp,16
   10224:	00008067          	ret

00010228 <__libc_init_array>:
   10228:	ff010113          	addi	sp,sp,-16
   1022c:	00812423          	sw	s0,8(sp)
   10230:	01212023          	sw	s2,0(sp)
   10234:	00004417          	auipc	s0,0x4
   10238:	40440413          	addi	s0,s0,1028 # 14638 <__init_array_start>
   1023c:	00004917          	auipc	s2,0x4
   10240:	3fc90913          	addi	s2,s2,1020 # 14638 <__init_array_start>
   10244:	40890933          	sub	s2,s2,s0
   10248:	00112623          	sw	ra,12(sp)
   1024c:	00912223          	sw	s1,4(sp)
   10250:	40295913          	srai	s2,s2,0x2
   10254:	00090e63          	beqz	s2,10270 <__libc_init_array+0x48>
   10258:	00000493          	li	s1,0
   1025c:	00042783          	lw	a5,0(s0)
   10260:	00148493          	addi	s1,s1,1
   10264:	00440413          	addi	s0,s0,4
   10268:	000780e7          	jalr	a5
   1026c:	fe9918e3          	bne	s2,s1,1025c <__libc_init_array+0x34>
   10270:	00004417          	auipc	s0,0x4
   10274:	3c840413          	addi	s0,s0,968 # 14638 <__init_array_start>
   10278:	00004917          	auipc	s2,0x4
   1027c:	3c890913          	addi	s2,s2,968 # 14640 <__do_global_dtors_aux_fini_array_entry>
   10280:	40890933          	sub	s2,s2,s0
   10284:	40295913          	srai	s2,s2,0x2
   10288:	00090e63          	beqz	s2,102a4 <__libc_init_array+0x7c>
   1028c:	00000493          	li	s1,0
   10290:	00042783          	lw	a5,0(s0)
   10294:	00148493          	addi	s1,s1,1
   10298:	00440413          	addi	s0,s0,4
   1029c:	000780e7          	jalr	a5
   102a0:	fe9918e3          	bne	s2,s1,10290 <__libc_init_array+0x68>
   102a4:	00c12083          	lw	ra,12(sp)
   102a8:	00812403          	lw	s0,8(sp)
   102ac:	00412483          	lw	s1,4(sp)
   102b0:	00012903          	lw	s2,0(sp)
   102b4:	01010113          	addi	sp,sp,16
   102b8:	00008067          	ret

000102bc <memset>:
   102bc:	00f00313          	li	t1,15
   102c0:	00050713          	mv	a4,a0
   102c4:	02c37e63          	bgeu	t1,a2,10300 <memset+0x44>
   102c8:	00f77793          	andi	a5,a4,15
   102cc:	0a079063          	bnez	a5,1036c <memset+0xb0>
   102d0:	08059263          	bnez	a1,10354 <memset+0x98>
   102d4:	ff067693          	andi	a3,a2,-16
   102d8:	00f67613          	andi	a2,a2,15
   102dc:	00e686b3          	add	a3,a3,a4
   102e0:	00b72023          	sw	a1,0(a4)
   102e4:	00b72223          	sw	a1,4(a4)
   102e8:	00b72423          	sw	a1,8(a4)
   102ec:	00b72623          	sw	a1,12(a4)
   102f0:	01070713          	addi	a4,a4,16
   102f4:	fed766e3          	bltu	a4,a3,102e0 <memset+0x24>
   102f8:	00061463          	bnez	a2,10300 <memset+0x44>
   102fc:	00008067          	ret
   10300:	40c306b3          	sub	a3,t1,a2
   10304:	00269693          	slli	a3,a3,0x2
   10308:	00000297          	auipc	t0,0x0
   1030c:	005686b3          	add	a3,a3,t0
   10310:	00c68067          	jr	12(a3)
   10314:	00b70723          	sb	a1,14(a4)
   10318:	00b706a3          	sb	a1,13(a4)
   1031c:	00b70623          	sb	a1,12(a4)
   10320:	00b705a3          	sb	a1,11(a4)
   10324:	00b70523          	sb	a1,10(a4)
   10328:	00b704a3          	sb	a1,9(a4)
   1032c:	00b70423          	sb	a1,8(a4)
   10330:	00b703a3          	sb	a1,7(a4)
   10334:	00b70323          	sb	a1,6(a4)
   10338:	00b702a3          	sb	a1,5(a4)
   1033c:	00b70223          	sb	a1,4(a4)
   10340:	00b701a3          	sb	a1,3(a4)
   10344:	00b70123          	sb	a1,2(a4)
   10348:	00b700a3          	sb	a1,1(a4)
   1034c:	00b70023          	sb	a1,0(a4)
   10350:	00008067          	ret
   10354:	0ff5f593          	zext.b	a1,a1
   10358:	00859693          	slli	a3,a1,0x8
   1035c:	00d5e5b3          	or	a1,a1,a3
   10360:	01059693          	slli	a3,a1,0x10
   10364:	00d5e5b3          	or	a1,a1,a3
   10368:	f6dff06f          	j	102d4 <memset+0x18>
   1036c:	00279693          	slli	a3,a5,0x2
   10370:	00000297          	auipc	t0,0x0
   10374:	005686b3          	add	a3,a3,t0
   10378:	00008293          	mv	t0,ra
   1037c:	fa0680e7          	jalr	-96(a3)
   10380:	00028093          	mv	ra,t0
   10384:	ff078793          	addi	a5,a5,-16
   10388:	40f70733          	sub	a4,a4,a5
   1038c:	00f60633          	add	a2,a2,a5
   10390:	f6c378e3          	bgeu	t1,a2,10300 <memset+0x44>
   10394:	f3dff06f          	j	102d0 <memset+0x14>

00010398 <_puts_r>:
   10398:	fc010113          	addi	sp,sp,-64
   1039c:	02812c23          	sw	s0,56(sp)
   103a0:	00050413          	mv	s0,a0
   103a4:	00058513          	mv	a0,a1
   103a8:	02912a23          	sw	s1,52(sp)
   103ac:	02112e23          	sw	ra,60(sp)
   103b0:	00058493          	mv	s1,a1
   103b4:	0c4000ef          	jal	ra,10478 <strlen>
   103b8:	00150713          	addi	a4,a0,1
   103bc:	00003697          	auipc	a3,0x3
   103c0:	27468693          	addi	a3,a3,628 # 13630 <__modsi3+0x40>
   103c4:	00e12e23          	sw	a4,28(sp)
   103c8:	03842783          	lw	a5,56(s0)
   103cc:	02010713          	addi	a4,sp,32
   103d0:	02d12423          	sw	a3,40(sp)
   103d4:	00e12a23          	sw	a4,20(sp)
   103d8:	00100693          	li	a3,1
   103dc:	00200713          	li	a4,2
   103e0:	02912023          	sw	s1,32(sp)
   103e4:	02a12223          	sw	a0,36(sp)
   103e8:	02d12623          	sw	a3,44(sp)
   103ec:	00e12c23          	sw	a4,24(sp)
   103f0:	00842583          	lw	a1,8(s0)
   103f4:	06078063          	beqz	a5,10454 <_puts_r+0xbc>
   103f8:	00c59783          	lh	a5,12(a1)
   103fc:	01279713          	slli	a4,a5,0x12
   10400:	02074263          	bltz	a4,10424 <_puts_r+0x8c>
   10404:	0645a703          	lw	a4,100(a1)
   10408:	000026b7          	lui	a3,0x2
   1040c:	00d7e7b3          	or	a5,a5,a3
   10410:	ffffe6b7          	lui	a3,0xffffe
   10414:	fff68693          	addi	a3,a3,-1 # ffffdfff <__BSS_END__+0xfffe911b>
   10418:	00d77733          	and	a4,a4,a3
   1041c:	00f59623          	sh	a5,12(a1)
   10420:	06e5a223          	sw	a4,100(a1)
   10424:	01410613          	addi	a2,sp,20
   10428:	00040513          	mv	a0,s0
   1042c:	608000ef          	jal	ra,10a34 <__sfvwrite_r>
   10430:	03c12083          	lw	ra,60(sp)
   10434:	03812403          	lw	s0,56(sp)
   10438:	00a03533          	snez	a0,a0
   1043c:	40a00533          	neg	a0,a0
   10440:	ff557513          	andi	a0,a0,-11
   10444:	03412483          	lw	s1,52(sp)
   10448:	00a50513          	addi	a0,a0,10
   1044c:	04010113          	addi	sp,sp,64
   10450:	00008067          	ret
   10454:	00040513          	mv	a0,s0
   10458:	00b12623          	sw	a1,12(sp)
   1045c:	590000ef          	jal	ra,109ec <__sinit>
   10460:	00c12583          	lw	a1,12(sp)
   10464:	f95ff06f          	j	103f8 <_puts_r+0x60>

00010468 <puts>:
   10468:	03818793          	addi	a5,gp,56 # 14e80 <_impure_ptr>
   1046c:	00050593          	mv	a1,a0
   10470:	0007a503          	lw	a0,0(a5)
   10474:	f25ff06f          	j	10398 <_puts_r>

00010478 <strlen>:
   10478:	00357793          	andi	a5,a0,3
   1047c:	00050713          	mv	a4,a0
   10480:	04079c63          	bnez	a5,104d8 <strlen+0x60>
   10484:	7f7f86b7          	lui	a3,0x7f7f8
   10488:	f7f68693          	addi	a3,a3,-129 # 7f7f7f7f <__BSS_END__+0x7f7e309b>
   1048c:	fff00593          	li	a1,-1
   10490:	00470713          	addi	a4,a4,4
   10494:	ffc72603          	lw	a2,-4(a4)
   10498:	00d677b3          	and	a5,a2,a3
   1049c:	00d787b3          	add	a5,a5,a3
   104a0:	00c7e7b3          	or	a5,a5,a2
   104a4:	00d7e7b3          	or	a5,a5,a3
   104a8:	feb784e3          	beq	a5,a1,10490 <strlen+0x18>
   104ac:	ffc74683          	lbu	a3,-4(a4)
   104b0:	40a707b3          	sub	a5,a4,a0
   104b4:	ffd74603          	lbu	a2,-3(a4)
   104b8:	ffe74503          	lbu	a0,-2(a4)
   104bc:	04068063          	beqz	a3,104fc <strlen+0x84>
   104c0:	02060a63          	beqz	a2,104f4 <strlen+0x7c>
   104c4:	00a03533          	snez	a0,a0
   104c8:	00f50533          	add	a0,a0,a5
   104cc:	ffe50513          	addi	a0,a0,-2
   104d0:	00008067          	ret
   104d4:	fa0688e3          	beqz	a3,10484 <strlen+0xc>
   104d8:	00074783          	lbu	a5,0(a4)
   104dc:	00170713          	addi	a4,a4,1
   104e0:	00377693          	andi	a3,a4,3
   104e4:	fe0798e3          	bnez	a5,104d4 <strlen+0x5c>
   104e8:	40a70733          	sub	a4,a4,a0
   104ec:	fff70513          	addi	a0,a4,-1
   104f0:	00008067          	ret
   104f4:	ffd78513          	addi	a0,a5,-3
   104f8:	00008067          	ret
   104fc:	ffc78513          	addi	a0,a5,-4
   10500:	00008067          	ret

00010504 <__register_exitproc>:
   10504:	03018793          	addi	a5,gp,48 # 14e78 <_global_impure_ptr>
   10508:	0007a703          	lw	a4,0(a5)
   1050c:	14872783          	lw	a5,328(a4)
   10510:	04078c63          	beqz	a5,10568 <__register_exitproc+0x64>
   10514:	0047a703          	lw	a4,4(a5)
   10518:	01f00813          	li	a6,31
   1051c:	06e84e63          	blt	a6,a4,10598 <__register_exitproc+0x94>
   10520:	00271813          	slli	a6,a4,0x2
   10524:	02050663          	beqz	a0,10550 <__register_exitproc+0x4c>
   10528:	01078333          	add	t1,a5,a6
   1052c:	08c32423          	sw	a2,136(t1) # 101c0 <exit+0x2c>
   10530:	1887a883          	lw	a7,392(a5)
   10534:	00100613          	li	a2,1
   10538:	00e61633          	sll	a2,a2,a4
   1053c:	00c8e8b3          	or	a7,a7,a2
   10540:	1917a423          	sw	a7,392(a5)
   10544:	10d32423          	sw	a3,264(t1)
   10548:	00200693          	li	a3,2
   1054c:	02d50463          	beq	a0,a3,10574 <__register_exitproc+0x70>
   10550:	00170713          	addi	a4,a4,1
   10554:	00e7a223          	sw	a4,4(a5)
   10558:	010787b3          	add	a5,a5,a6
   1055c:	00b7a423          	sw	a1,8(a5)
   10560:	00000513          	li	a0,0
   10564:	00008067          	ret
   10568:	14c70793          	addi	a5,a4,332
   1056c:	14f72423          	sw	a5,328(a4)
   10570:	fa5ff06f          	j	10514 <__register_exitproc+0x10>
   10574:	18c7a683          	lw	a3,396(a5)
   10578:	00170713          	addi	a4,a4,1
   1057c:	00e7a223          	sw	a4,4(a5)
   10580:	00c6e633          	or	a2,a3,a2
   10584:	18c7a623          	sw	a2,396(a5)
   10588:	010787b3          	add	a5,a5,a6
   1058c:	00b7a423          	sw	a1,8(a5)
   10590:	00000513          	li	a0,0
   10594:	00008067          	ret
   10598:	fff00513          	li	a0,-1
   1059c:	00008067          	ret

000105a0 <__call_exitprocs>:
   105a0:	fd010113          	addi	sp,sp,-48
   105a4:	03018793          	addi	a5,gp,48 # 14e78 <_global_impure_ptr>
   105a8:	01812423          	sw	s8,8(sp)
   105ac:	0007ac03          	lw	s8,0(a5)
   105b0:	01312e23          	sw	s3,28(sp)
   105b4:	01412c23          	sw	s4,24(sp)
   105b8:	01512a23          	sw	s5,20(sp)
   105bc:	01612823          	sw	s6,16(sp)
   105c0:	02112623          	sw	ra,44(sp)
   105c4:	02812423          	sw	s0,40(sp)
   105c8:	02912223          	sw	s1,36(sp)
   105cc:	03212023          	sw	s2,32(sp)
   105d0:	01712623          	sw	s7,12(sp)
   105d4:	00050a93          	mv	s5,a0
   105d8:	00058b13          	mv	s6,a1
   105dc:	00100a13          	li	s4,1
   105e0:	fff00993          	li	s3,-1
   105e4:	148c2903          	lw	s2,328(s8)
   105e8:	02090863          	beqz	s2,10618 <__call_exitprocs+0x78>
   105ec:	00492483          	lw	s1,4(s2)
   105f0:	fff48413          	addi	s0,s1,-1
   105f4:	02044263          	bltz	s0,10618 <__call_exitprocs+0x78>
   105f8:	00249493          	slli	s1,s1,0x2
   105fc:	009904b3          	add	s1,s2,s1
   10600:	040b0463          	beqz	s6,10648 <__call_exitprocs+0xa8>
   10604:	1044a783          	lw	a5,260(s1)
   10608:	05678063          	beq	a5,s6,10648 <__call_exitprocs+0xa8>
   1060c:	fff40413          	addi	s0,s0,-1
   10610:	ffc48493          	addi	s1,s1,-4
   10614:	ff3416e3          	bne	s0,s3,10600 <__call_exitprocs+0x60>
   10618:	02c12083          	lw	ra,44(sp)
   1061c:	02812403          	lw	s0,40(sp)
   10620:	02412483          	lw	s1,36(sp)
   10624:	02012903          	lw	s2,32(sp)
   10628:	01c12983          	lw	s3,28(sp)
   1062c:	01812a03          	lw	s4,24(sp)
   10630:	01412a83          	lw	s5,20(sp)
   10634:	01012b03          	lw	s6,16(sp)
   10638:	00c12b83          	lw	s7,12(sp)
   1063c:	00812c03          	lw	s8,8(sp)
   10640:	03010113          	addi	sp,sp,48
   10644:	00008067          	ret
   10648:	00492783          	lw	a5,4(s2)
   1064c:	0044a683          	lw	a3,4(s1)
   10650:	fff78793          	addi	a5,a5,-1
   10654:	04878a63          	beq	a5,s0,106a8 <__call_exitprocs+0x108>
   10658:	0004a223          	sw	zero,4(s1)
   1065c:	fa0688e3          	beqz	a3,1060c <__call_exitprocs+0x6c>
   10660:	18892783          	lw	a5,392(s2)
   10664:	008a1733          	sll	a4,s4,s0
   10668:	00492b83          	lw	s7,4(s2)
   1066c:	00f777b3          	and	a5,a4,a5
   10670:	00079e63          	bnez	a5,1068c <__call_exitprocs+0xec>
   10674:	000680e7          	jalr	a3
   10678:	00492783          	lw	a5,4(s2)
   1067c:	f77794e3          	bne	a5,s7,105e4 <__call_exitprocs+0x44>
   10680:	148c2783          	lw	a5,328(s8)
   10684:	f92784e3          	beq	a5,s2,1060c <__call_exitprocs+0x6c>
   10688:	f5dff06f          	j	105e4 <__call_exitprocs+0x44>
   1068c:	18c92783          	lw	a5,396(s2)
   10690:	0844a583          	lw	a1,132(s1)
   10694:	00f77733          	and	a4,a4,a5
   10698:	00071c63          	bnez	a4,106b0 <__call_exitprocs+0x110>
   1069c:	000a8513          	mv	a0,s5
   106a0:	000680e7          	jalr	a3
   106a4:	fd5ff06f          	j	10678 <__call_exitprocs+0xd8>
   106a8:	00892223          	sw	s0,4(s2)
   106ac:	fb1ff06f          	j	1065c <__call_exitprocs+0xbc>
   106b0:	00058513          	mv	a0,a1
   106b4:	000680e7          	jalr	a3
   106b8:	fc1ff06f          	j	10678 <__call_exitprocs+0xd8>

000106bc <__fp_lock>:
   106bc:	00000513          	li	a0,0
   106c0:	00008067          	ret

000106c4 <_cleanup_r>:
   106c4:	00002597          	auipc	a1,0x2
   106c8:	e2458593          	addi	a1,a1,-476 # 124e8 <_fclose_r>
   106cc:	0d50006f          	j	10fa0 <_fwalk_reent>

000106d0 <__sinit.part.0>:
   106d0:	fe010113          	addi	sp,sp,-32
   106d4:	00112e23          	sw	ra,28(sp)
   106d8:	00812c23          	sw	s0,24(sp)
   106dc:	00912a23          	sw	s1,20(sp)
   106e0:	01212823          	sw	s2,16(sp)
   106e4:	01312623          	sw	s3,12(sp)
   106e8:	01412423          	sw	s4,8(sp)
   106ec:	01512223          	sw	s5,4(sp)
   106f0:	01612023          	sw	s6,0(sp)
   106f4:	00452403          	lw	s0,4(a0)
   106f8:	00000717          	auipc	a4,0x0
   106fc:	fcc70713          	addi	a4,a4,-52 # 106c4 <_cleanup_r>
   10700:	02e52e23          	sw	a4,60(a0)
   10704:	2ec50793          	addi	a5,a0,748
   10708:	00300713          	li	a4,3
   1070c:	2ee52223          	sw	a4,740(a0)
   10710:	2ef52423          	sw	a5,744(a0)
   10714:	2e052023          	sw	zero,736(a0)
   10718:	00400793          	li	a5,4
   1071c:	00050913          	mv	s2,a0
   10720:	00f42623          	sw	a5,12(s0)
   10724:	00800613          	li	a2,8
   10728:	00000593          	li	a1,0
   1072c:	06042223          	sw	zero,100(s0)
   10730:	00042023          	sw	zero,0(s0)
   10734:	00042223          	sw	zero,4(s0)
   10738:	00042423          	sw	zero,8(s0)
   1073c:	00042823          	sw	zero,16(s0)
   10740:	00042a23          	sw	zero,20(s0)
   10744:	00042c23          	sw	zero,24(s0)
   10748:	05c40513          	addi	a0,s0,92
   1074c:	b71ff0ef          	jal	ra,102bc <memset>
   10750:	00892483          	lw	s1,8(s2)
   10754:	00002b17          	auipc	s6,0x2
   10758:	a1cb0b13          	addi	s6,s6,-1508 # 12170 <__sread>
   1075c:	00002a97          	auipc	s5,0x2
   10760:	a78a8a93          	addi	s5,s5,-1416 # 121d4 <__swrite>
   10764:	00002a17          	auipc	s4,0x2
   10768:	af8a0a13          	addi	s4,s4,-1288 # 1225c <__sseek>
   1076c:	00002997          	auipc	s3,0x2
   10770:	b5898993          	addi	s3,s3,-1192 # 122c4 <__sclose>
   10774:	000107b7          	lui	a5,0x10
   10778:	03642023          	sw	s6,32(s0)
   1077c:	03542223          	sw	s5,36(s0)
   10780:	03442423          	sw	s4,40(s0)
   10784:	03342623          	sw	s3,44(s0)
   10788:	00842e23          	sw	s0,28(s0)
   1078c:	00978793          	addi	a5,a5,9 # 10009 <register_fini-0x6b>
   10790:	00f4a623          	sw	a5,12(s1)
   10794:	00800613          	li	a2,8
   10798:	00000593          	li	a1,0
   1079c:	0604a223          	sw	zero,100(s1)
   107a0:	0004a023          	sw	zero,0(s1)
   107a4:	0004a223          	sw	zero,4(s1)
   107a8:	0004a423          	sw	zero,8(s1)
   107ac:	0004a823          	sw	zero,16(s1)
   107b0:	0004aa23          	sw	zero,20(s1)
   107b4:	0004ac23          	sw	zero,24(s1)
   107b8:	05c48513          	addi	a0,s1,92
   107bc:	b01ff0ef          	jal	ra,102bc <memset>
   107c0:	00c92403          	lw	s0,12(s2)
   107c4:	000207b7          	lui	a5,0x20
   107c8:	0364a023          	sw	s6,32(s1)
   107cc:	0354a223          	sw	s5,36(s1)
   107d0:	0344a423          	sw	s4,40(s1)
   107d4:	0334a623          	sw	s3,44(s1)
   107d8:	0094ae23          	sw	s1,28(s1)
   107dc:	01278793          	addi	a5,a5,18 # 20012 <__BSS_END__+0xb12e>
   107e0:	00f42623          	sw	a5,12(s0)
   107e4:	06042223          	sw	zero,100(s0)
   107e8:	00042023          	sw	zero,0(s0)
   107ec:	00042223          	sw	zero,4(s0)
   107f0:	00042423          	sw	zero,8(s0)
   107f4:	00042823          	sw	zero,16(s0)
   107f8:	00042a23          	sw	zero,20(s0)
   107fc:	00042c23          	sw	zero,24(s0)
   10800:	05c40513          	addi	a0,s0,92
   10804:	00800613          	li	a2,8
   10808:	00000593          	li	a1,0
   1080c:	ab1ff0ef          	jal	ra,102bc <memset>
   10810:	01c12083          	lw	ra,28(sp)
   10814:	03642023          	sw	s6,32(s0)
   10818:	03542223          	sw	s5,36(s0)
   1081c:	03442423          	sw	s4,40(s0)
   10820:	03342623          	sw	s3,44(s0)
   10824:	00842e23          	sw	s0,28(s0)
   10828:	01812403          	lw	s0,24(sp)
   1082c:	00100793          	li	a5,1
   10830:	02f92c23          	sw	a5,56(s2)
   10834:	01412483          	lw	s1,20(sp)
   10838:	01012903          	lw	s2,16(sp)
   1083c:	00c12983          	lw	s3,12(sp)
   10840:	00812a03          	lw	s4,8(sp)
   10844:	00412a83          	lw	s5,4(sp)
   10848:	00012b03          	lw	s6,0(sp)
   1084c:	02010113          	addi	sp,sp,32
   10850:	00008067          	ret

00010854 <__fp_unlock>:
   10854:	00000513          	li	a0,0
   10858:	00008067          	ret

0001085c <__sfmoreglue>:
   1085c:	ff010113          	addi	sp,sp,-16
   10860:	fff58613          	addi	a2,a1,-1
   10864:	00812423          	sw	s0,8(sp)
   10868:	00161413          	slli	s0,a2,0x1
   1086c:	00c40433          	add	s0,s0,a2
   10870:	00241413          	slli	s0,s0,0x2
   10874:	00c40433          	add	s0,s0,a2
   10878:	00341413          	slli	s0,s0,0x3
   1087c:	01212023          	sw	s2,0(sp)
   10880:	00058913          	mv	s2,a1
   10884:	07440593          	addi	a1,s0,116
   10888:	00912223          	sw	s1,4(sp)
   1088c:	00112623          	sw	ra,12(sp)
   10890:	7d0000ef          	jal	ra,11060 <_malloc_r>
   10894:	00050493          	mv	s1,a0
   10898:	02050063          	beqz	a0,108b8 <__sfmoreglue+0x5c>
   1089c:	00c50513          	addi	a0,a0,12
   108a0:	0004a023          	sw	zero,0(s1)
   108a4:	0124a223          	sw	s2,4(s1)
   108a8:	00a4a423          	sw	a0,8(s1)
   108ac:	06840613          	addi	a2,s0,104
   108b0:	00000593          	li	a1,0
   108b4:	a09ff0ef          	jal	ra,102bc <memset>
   108b8:	00c12083          	lw	ra,12(sp)
   108bc:	00812403          	lw	s0,8(sp)
   108c0:	00048513          	mv	a0,s1
   108c4:	00012903          	lw	s2,0(sp)
   108c8:	00412483          	lw	s1,4(sp)
   108cc:	01010113          	addi	sp,sp,16
   108d0:	00008067          	ret

000108d4 <__sfp>:
   108d4:	fe010113          	addi	sp,sp,-32
   108d8:	03018793          	addi	a5,gp,48 # 14e78 <_global_impure_ptr>
   108dc:	01212823          	sw	s2,16(sp)
   108e0:	0007a903          	lw	s2,0(a5)
   108e4:	01312623          	sw	s3,12(sp)
   108e8:	00112e23          	sw	ra,28(sp)
   108ec:	03892783          	lw	a5,56(s2)
   108f0:	00812c23          	sw	s0,24(sp)
   108f4:	00912a23          	sw	s1,20(sp)
   108f8:	00050993          	mv	s3,a0
   108fc:	0a078663          	beqz	a5,109a8 <__sfp+0xd4>
   10900:	2e090913          	addi	s2,s2,736
   10904:	fff00493          	li	s1,-1
   10908:	00492783          	lw	a5,4(s2)
   1090c:	00892403          	lw	s0,8(s2)
   10910:	fff78793          	addi	a5,a5,-1
   10914:	0007da63          	bgez	a5,10928 <__sfp+0x54>
   10918:	0800006f          	j	10998 <__sfp+0xc4>
   1091c:	fff78793          	addi	a5,a5,-1
   10920:	06840413          	addi	s0,s0,104
   10924:	06978a63          	beq	a5,s1,10998 <__sfp+0xc4>
   10928:	00c41703          	lh	a4,12(s0)
   1092c:	fe0718e3          	bnez	a4,1091c <__sfp+0x48>
   10930:	ffff07b7          	lui	a5,0xffff0
   10934:	00178793          	addi	a5,a5,1 # ffff0001 <__BSS_END__+0xfffdb11d>
   10938:	06042223          	sw	zero,100(s0)
   1093c:	00042023          	sw	zero,0(s0)
   10940:	00042223          	sw	zero,4(s0)
   10944:	00042423          	sw	zero,8(s0)
   10948:	00f42623          	sw	a5,12(s0)
   1094c:	00042823          	sw	zero,16(s0)
   10950:	00042a23          	sw	zero,20(s0)
   10954:	00042c23          	sw	zero,24(s0)
   10958:	00800613          	li	a2,8
   1095c:	00000593          	li	a1,0
   10960:	05c40513          	addi	a0,s0,92
   10964:	959ff0ef          	jal	ra,102bc <memset>
   10968:	02042823          	sw	zero,48(s0)
   1096c:	02042a23          	sw	zero,52(s0)
   10970:	04042223          	sw	zero,68(s0)
   10974:	04042423          	sw	zero,72(s0)
   10978:	00040513          	mv	a0,s0
   1097c:	01c12083          	lw	ra,28(sp)
   10980:	01812403          	lw	s0,24(sp)
   10984:	01412483          	lw	s1,20(sp)
   10988:	01012903          	lw	s2,16(sp)
   1098c:	00c12983          	lw	s3,12(sp)
   10990:	02010113          	addi	sp,sp,32
   10994:	00008067          	ret
   10998:	00092403          	lw	s0,0(s2)
   1099c:	00040c63          	beqz	s0,109b4 <__sfp+0xe0>
   109a0:	00040913          	mv	s2,s0
   109a4:	f65ff06f          	j	10908 <__sfp+0x34>
   109a8:	00090513          	mv	a0,s2
   109ac:	d25ff0ef          	jal	ra,106d0 <__sinit.part.0>
   109b0:	f51ff06f          	j	10900 <__sfp+0x2c>
   109b4:	00400593          	li	a1,4
   109b8:	00098513          	mv	a0,s3
   109bc:	ea1ff0ef          	jal	ra,1085c <__sfmoreglue>
   109c0:	00a92023          	sw	a0,0(s2)
   109c4:	00050413          	mv	s0,a0
   109c8:	fc051ce3          	bnez	a0,109a0 <__sfp+0xcc>
   109cc:	00c00793          	li	a5,12
   109d0:	00f9a023          	sw	a5,0(s3)
   109d4:	fa5ff06f          	j	10978 <__sfp+0xa4>

000109d8 <_cleanup>:
   109d8:	03018793          	addi	a5,gp,48 # 14e78 <_global_impure_ptr>
   109dc:	0007a503          	lw	a0,0(a5)
   109e0:	00002597          	auipc	a1,0x2
   109e4:	b0858593          	addi	a1,a1,-1272 # 124e8 <_fclose_r>
   109e8:	5b80006f          	j	10fa0 <_fwalk_reent>

000109ec <__sinit>:
   109ec:	03852783          	lw	a5,56(a0)
   109f0:	00078463          	beqz	a5,109f8 <__sinit+0xc>
   109f4:	00008067          	ret
   109f8:	cd9ff06f          	j	106d0 <__sinit.part.0>

000109fc <__sfp_lock_acquire>:
   109fc:	00008067          	ret

00010a00 <__sfp_lock_release>:
   10a00:	00008067          	ret

00010a04 <__sinit_lock_acquire>:
   10a04:	00008067          	ret

00010a08 <__sinit_lock_release>:
   10a08:	00008067          	ret

00010a0c <__fp_lock_all>:
   10a0c:	03818793          	addi	a5,gp,56 # 14e80 <_impure_ptr>
   10a10:	0007a503          	lw	a0,0(a5)
   10a14:	00000597          	auipc	a1,0x0
   10a18:	ca858593          	addi	a1,a1,-856 # 106bc <__fp_lock>
   10a1c:	4d40006f          	j	10ef0 <_fwalk>

00010a20 <__fp_unlock_all>:
   10a20:	03818793          	addi	a5,gp,56 # 14e80 <_impure_ptr>
   10a24:	0007a503          	lw	a0,0(a5)
   10a28:	00000597          	auipc	a1,0x0
   10a2c:	e2c58593          	addi	a1,a1,-468 # 10854 <__fp_unlock>
   10a30:	4c00006f          	j	10ef0 <_fwalk>

00010a34 <__sfvwrite_r>:
   10a34:	00862783          	lw	a5,8(a2)
   10a38:	34078263          	beqz	a5,10d7c <__sfvwrite_r+0x348>
   10a3c:	00c5d783          	lhu	a5,12(a1)
   10a40:	fd010113          	addi	sp,sp,-48
   10a44:	02812423          	sw	s0,40(sp)
   10a48:	01412c23          	sw	s4,24(sp)
   10a4c:	01512a23          	sw	s5,20(sp)
   10a50:	02112623          	sw	ra,44(sp)
   10a54:	02912223          	sw	s1,36(sp)
   10a58:	03212023          	sw	s2,32(sp)
   10a5c:	01312e23          	sw	s3,28(sp)
   10a60:	01612823          	sw	s6,16(sp)
   10a64:	01712623          	sw	s7,12(sp)
   10a68:	01812423          	sw	s8,8(sp)
   10a6c:	01912223          	sw	s9,4(sp)
   10a70:	01a12023          	sw	s10,0(sp)
   10a74:	0087f713          	andi	a4,a5,8
   10a78:	00058413          	mv	s0,a1
   10a7c:	00050a93          	mv	s5,a0
   10a80:	00060a13          	mv	s4,a2
   10a84:	08070a63          	beqz	a4,10b18 <__sfvwrite_r+0xe4>
   10a88:	0105a703          	lw	a4,16(a1)
   10a8c:	08070663          	beqz	a4,10b18 <__sfvwrite_r+0xe4>
   10a90:	0027f713          	andi	a4,a5,2
   10a94:	000a2483          	lw	s1,0(s4)
   10a98:	0a070063          	beqz	a4,10b38 <__sfvwrite_r+0x104>
   10a9c:	02442703          	lw	a4,36(s0)
   10aa0:	01c42783          	lw	a5,28(s0)
   10aa4:	80000b37          	lui	s6,0x80000
   10aa8:	00000993          	li	s3,0
   10aac:	00000913          	li	s2,0
   10ab0:	c00b4b13          	xori	s6,s6,-1024
   10ab4:	00098613          	mv	a2,s3
   10ab8:	00078593          	mv	a1,a5
   10abc:	000a8513          	mv	a0,s5
   10ac0:	04090463          	beqz	s2,10b08 <__sfvwrite_r+0xd4>
   10ac4:	00090693          	mv	a3,s2
   10ac8:	012b7463          	bgeu	s6,s2,10ad0 <__sfvwrite_r+0x9c>
   10acc:	000b0693          	mv	a3,s6
   10ad0:	000700e7          	jalr	a4
   10ad4:	28a05a63          	blez	a0,10d68 <__sfvwrite_r+0x334>
   10ad8:	008a2783          	lw	a5,8(s4)
   10adc:	00a989b3          	add	s3,s3,a0
   10ae0:	40a90933          	sub	s2,s2,a0
   10ae4:	40a78533          	sub	a0,a5,a0
   10ae8:	00aa2423          	sw	a0,8(s4)
   10aec:	20050c63          	beqz	a0,10d04 <__sfvwrite_r+0x2d0>
   10af0:	01c42783          	lw	a5,28(s0)
   10af4:	02442703          	lw	a4,36(s0)
   10af8:	00098613          	mv	a2,s3
   10afc:	00078593          	mv	a1,a5
   10b00:	000a8513          	mv	a0,s5
   10b04:	fc0910e3          	bnez	s2,10ac4 <__sfvwrite_r+0x90>
   10b08:	0004a983          	lw	s3,0(s1)
   10b0c:	0044a903          	lw	s2,4(s1)
   10b10:	00848493          	addi	s1,s1,8
   10b14:	fa1ff06f          	j	10ab4 <__sfvwrite_r+0x80>
   10b18:	00040593          	mv	a1,s0
   10b1c:	000a8513          	mv	a0,s5
   10b20:	00d010ef          	jal	ra,1232c <__swsetup_r>
   10b24:	3c051263          	bnez	a0,10ee8 <__sfvwrite_r+0x4b4>
   10b28:	00c45783          	lhu	a5,12(s0)
   10b2c:	000a2483          	lw	s1,0(s4)
   10b30:	0027f713          	andi	a4,a5,2
   10b34:	f60714e3          	bnez	a4,10a9c <__sfvwrite_r+0x68>
   10b38:	0017f713          	andi	a4,a5,1
   10b3c:	24071463          	bnez	a4,10d84 <__sfvwrite_r+0x350>
   10b40:	00842c83          	lw	s9,8(s0)
   10b44:	00042503          	lw	a0,0(s0)
   10b48:	80000bb7          	lui	s7,0x80000
   10b4c:	ffebcc13          	xori	s8,s7,-2
   10b50:	00000b13          	li	s6,0
   10b54:	00000913          	li	s2,0
   10b58:	fffbcb93          	not	s7,s7
   10b5c:	0e090e63          	beqz	s2,10c58 <__sfvwrite_r+0x224>
   10b60:	2007f713          	andi	a4,a5,512
   10b64:	24070c63          	beqz	a4,10dbc <__sfvwrite_r+0x388>
   10b68:	000c8d13          	mv	s10,s9
   10b6c:	2f996863          	bltu	s2,s9,10e5c <__sfvwrite_r+0x428>
   10b70:	4807f713          	andi	a4,a5,1152
   10b74:	08070a63          	beqz	a4,10c08 <__sfvwrite_r+0x1d4>
   10b78:	01442683          	lw	a3,20(s0)
   10b7c:	01042583          	lw	a1,16(s0)
   10b80:	00190713          	addi	a4,s2,1
   10b84:	00169993          	slli	s3,a3,0x1
   10b88:	00d986b3          	add	a3,s3,a3
   10b8c:	01f6d993          	srli	s3,a3,0x1f
   10b90:	40b50cb3          	sub	s9,a0,a1
   10b94:	00d989b3          	add	s3,s3,a3
   10b98:	4019d993          	srai	s3,s3,0x1
   10b9c:	01970733          	add	a4,a4,s9
   10ba0:	00098613          	mv	a2,s3
   10ba4:	00e9f663          	bgeu	s3,a4,10bb0 <__sfvwrite_r+0x17c>
   10ba8:	00070993          	mv	s3,a4
   10bac:	00070613          	mv	a2,a4
   10bb0:	4007f793          	andi	a5,a5,1024
   10bb4:	2e078a63          	beqz	a5,10ea8 <__sfvwrite_r+0x474>
   10bb8:	00060593          	mv	a1,a2
   10bbc:	000a8513          	mv	a0,s5
   10bc0:	4a0000ef          	jal	ra,11060 <_malloc_r>
   10bc4:	00050d13          	mv	s10,a0
   10bc8:	30050863          	beqz	a0,10ed8 <__sfvwrite_r+0x4a4>
   10bcc:	01042583          	lw	a1,16(s0)
   10bd0:	000c8613          	mv	a2,s9
   10bd4:	535000ef          	jal	ra,11908 <memcpy>
   10bd8:	00c45783          	lhu	a5,12(s0)
   10bdc:	b7f7f793          	andi	a5,a5,-1153
   10be0:	0807e793          	ori	a5,a5,128
   10be4:	00f41623          	sh	a5,12(s0)
   10be8:	019d0533          	add	a0,s10,s9
   10bec:	419987b3          	sub	a5,s3,s9
   10bf0:	01a42823          	sw	s10,16(s0)
   10bf4:	00a42023          	sw	a0,0(s0)
   10bf8:	01342a23          	sw	s3,20(s0)
   10bfc:	00090c93          	mv	s9,s2
   10c00:	00f42423          	sw	a5,8(s0)
   10c04:	00090d13          	mv	s10,s2
   10c08:	000d0613          	mv	a2,s10
   10c0c:	000b0593          	mv	a1,s6
   10c10:	615000ef          	jal	ra,11a24 <memmove>
   10c14:	00842783          	lw	a5,8(s0)
   10c18:	00042603          	lw	a2,0(s0)
   10c1c:	00090993          	mv	s3,s2
   10c20:	41978cb3          	sub	s9,a5,s9
   10c24:	01a60633          	add	a2,a2,s10
   10c28:	01942423          	sw	s9,8(s0)
   10c2c:	00c42023          	sw	a2,0(s0)
   10c30:	00000913          	li	s2,0
   10c34:	008a2783          	lw	a5,8(s4)
   10c38:	013b0b33          	add	s6,s6,s3
   10c3c:	413789b3          	sub	s3,a5,s3
   10c40:	013a2423          	sw	s3,8(s4)
   10c44:	0c098063          	beqz	s3,10d04 <__sfvwrite_r+0x2d0>
   10c48:	00842c83          	lw	s9,8(s0)
   10c4c:	00042503          	lw	a0,0(s0)
   10c50:	00c45783          	lhu	a5,12(s0)
   10c54:	f00916e3          	bnez	s2,10b60 <__sfvwrite_r+0x12c>
   10c58:	0004ab03          	lw	s6,0(s1)
   10c5c:	0044a903          	lw	s2,4(s1)
   10c60:	00848493          	addi	s1,s1,8
   10c64:	ef9ff06f          	j	10b5c <__sfvwrite_r+0x128>
   10c68:	0044a983          	lw	s3,4(s1)
   10c6c:	0004ab83          	lw	s7,0(s1)
   10c70:	00848493          	addi	s1,s1,8
   10c74:	fe098ae3          	beqz	s3,10c68 <__sfvwrite_r+0x234>
   10c78:	00098613          	mv	a2,s3
   10c7c:	00a00593          	li	a1,10
   10c80:	000b8513          	mv	a0,s7
   10c84:	3a9000ef          	jal	ra,1182c <memchr>
   10c88:	12050463          	beqz	a0,10db0 <__sfvwrite_r+0x37c>
   10c8c:	00150513          	addi	a0,a0,1
   10c90:	41750b33          	sub	s6,a0,s7
   10c94:	000b0793          	mv	a5,s6
   10c98:	00098c13          	mv	s8,s3
   10c9c:	0137f463          	bgeu	a5,s3,10ca4 <__sfvwrite_r+0x270>
   10ca0:	00078c13          	mv	s8,a5
   10ca4:	00042503          	lw	a0,0(s0)
   10ca8:	01042783          	lw	a5,16(s0)
   10cac:	01442683          	lw	a3,20(s0)
   10cb0:	00a7f863          	bgeu	a5,a0,10cc0 <__sfvwrite_r+0x28c>
   10cb4:	00842903          	lw	s2,8(s0)
   10cb8:	01268933          	add	s2,a3,s2
   10cbc:	09894263          	blt	s2,s8,10d40 <__sfvwrite_r+0x30c>
   10cc0:	1adc4e63          	blt	s8,a3,10e7c <__sfvwrite_r+0x448>
   10cc4:	02442783          	lw	a5,36(s0)
   10cc8:	01c42583          	lw	a1,28(s0)
   10ccc:	000b8613          	mv	a2,s7
   10cd0:	000a8513          	mv	a0,s5
   10cd4:	000780e7          	jalr	a5
   10cd8:	00050913          	mv	s2,a0
   10cdc:	08a05663          	blez	a0,10d68 <__sfvwrite_r+0x334>
   10ce0:	412b0b33          	sub	s6,s6,s2
   10ce4:	00100513          	li	a0,1
   10ce8:	180b0063          	beqz	s6,10e68 <__sfvwrite_r+0x434>
   10cec:	008a2783          	lw	a5,8(s4)
   10cf0:	012b8bb3          	add	s7,s7,s2
   10cf4:	412989b3          	sub	s3,s3,s2
   10cf8:	41278933          	sub	s2,a5,s2
   10cfc:	012a2423          	sw	s2,8(s4)
   10d00:	08091a63          	bnez	s2,10d94 <__sfvwrite_r+0x360>
   10d04:	00000513          	li	a0,0
   10d08:	02c12083          	lw	ra,44(sp)
   10d0c:	02812403          	lw	s0,40(sp)
   10d10:	02412483          	lw	s1,36(sp)
   10d14:	02012903          	lw	s2,32(sp)
   10d18:	01c12983          	lw	s3,28(sp)
   10d1c:	01812a03          	lw	s4,24(sp)
   10d20:	01412a83          	lw	s5,20(sp)
   10d24:	01012b03          	lw	s6,16(sp)
   10d28:	00c12b83          	lw	s7,12(sp)
   10d2c:	00812c03          	lw	s8,8(sp)
   10d30:	00412c83          	lw	s9,4(sp)
   10d34:	00012d03          	lw	s10,0(sp)
   10d38:	03010113          	addi	sp,sp,48
   10d3c:	00008067          	ret
   10d40:	000b8593          	mv	a1,s7
   10d44:	00090613          	mv	a2,s2
   10d48:	4dd000ef          	jal	ra,11a24 <memmove>
   10d4c:	00042783          	lw	a5,0(s0)
   10d50:	00040593          	mv	a1,s0
   10d54:	000a8513          	mv	a0,s5
   10d58:	012787b3          	add	a5,a5,s2
   10d5c:	00f42023          	sw	a5,0(s0)
   10d60:	305010ef          	jal	ra,12864 <_fflush_r>
   10d64:	f6050ee3          	beqz	a0,10ce0 <__sfvwrite_r+0x2ac>
   10d68:	00c41783          	lh	a5,12(s0)
   10d6c:	0407e793          	ori	a5,a5,64
   10d70:	00f41623          	sh	a5,12(s0)
   10d74:	fff00513          	li	a0,-1
   10d78:	f91ff06f          	j	10d08 <__sfvwrite_r+0x2d4>
   10d7c:	00000513          	li	a0,0
   10d80:	00008067          	ret
   10d84:	00000b13          	li	s6,0
   10d88:	00000513          	li	a0,0
   10d8c:	00000b93          	li	s7,0
   10d90:	00000993          	li	s3,0
   10d94:	ec098ae3          	beqz	s3,10c68 <__sfvwrite_r+0x234>
   10d98:	ee051ee3          	bnez	a0,10c94 <__sfvwrite_r+0x260>
   10d9c:	00098613          	mv	a2,s3
   10da0:	00a00593          	li	a1,10
   10da4:	000b8513          	mv	a0,s7
   10da8:	285000ef          	jal	ra,1182c <memchr>
   10dac:	ee0510e3          	bnez	a0,10c8c <__sfvwrite_r+0x258>
   10db0:	00198793          	addi	a5,s3,1
   10db4:	00078b13          	mv	s6,a5
   10db8:	ee1ff06f          	j	10c98 <__sfvwrite_r+0x264>
   10dbc:	01042783          	lw	a5,16(s0)
   10dc0:	04a7e863          	bltu	a5,a0,10e10 <__sfvwrite_r+0x3dc>
   10dc4:	01442983          	lw	s3,20(s0)
   10dc8:	05396463          	bltu	s2,s3,10e10 <__sfvwrite_r+0x3dc>
   10dcc:	00090513          	mv	a0,s2
   10dd0:	012c7463          	bgeu	s8,s2,10dd8 <__sfvwrite_r+0x3a4>
   10dd4:	000b8513          	mv	a0,s7
   10dd8:	00098593          	mv	a1,s3
   10ddc:	790020ef          	jal	ra,1356c <__divsi3>
   10de0:	00098593          	mv	a1,s3
   10de4:	764020ef          	jal	ra,13548 <__mulsi3>
   10de8:	01c42583          	lw	a1,28(s0)
   10dec:	02442783          	lw	a5,36(s0)
   10df0:	00050693          	mv	a3,a0
   10df4:	000b0613          	mv	a2,s6
   10df8:	000a8513          	mv	a0,s5
   10dfc:	000780e7          	jalr	a5
   10e00:	f6a054e3          	blez	a0,10d68 <__sfvwrite_r+0x334>
   10e04:	00050993          	mv	s3,a0
   10e08:	41390933          	sub	s2,s2,s3
   10e0c:	e29ff06f          	j	10c34 <__sfvwrite_r+0x200>
   10e10:	000c8993          	mv	s3,s9
   10e14:	01997463          	bgeu	s2,s9,10e1c <__sfvwrite_r+0x3e8>
   10e18:	00090993          	mv	s3,s2
   10e1c:	00098613          	mv	a2,s3
   10e20:	000b0593          	mv	a1,s6
   10e24:	401000ef          	jal	ra,11a24 <memmove>
   10e28:	00842783          	lw	a5,8(s0)
   10e2c:	00042703          	lw	a4,0(s0)
   10e30:	413787b3          	sub	a5,a5,s3
   10e34:	01370733          	add	a4,a4,s3
   10e38:	00f42423          	sw	a5,8(s0)
   10e3c:	00e42023          	sw	a4,0(s0)
   10e40:	fc0794e3          	bnez	a5,10e08 <__sfvwrite_r+0x3d4>
   10e44:	00040593          	mv	a1,s0
   10e48:	000a8513          	mv	a0,s5
   10e4c:	219010ef          	jal	ra,12864 <_fflush_r>
   10e50:	f0051ce3          	bnez	a0,10d68 <__sfvwrite_r+0x334>
   10e54:	41390933          	sub	s2,s2,s3
   10e58:	dddff06f          	j	10c34 <__sfvwrite_r+0x200>
   10e5c:	00090c93          	mv	s9,s2
   10e60:	00090d13          	mv	s10,s2
   10e64:	da5ff06f          	j	10c08 <__sfvwrite_r+0x1d4>
   10e68:	00040593          	mv	a1,s0
   10e6c:	000a8513          	mv	a0,s5
   10e70:	1f5010ef          	jal	ra,12864 <_fflush_r>
   10e74:	e6050ce3          	beqz	a0,10cec <__sfvwrite_r+0x2b8>
   10e78:	ef1ff06f          	j	10d68 <__sfvwrite_r+0x334>
   10e7c:	000c0613          	mv	a2,s8
   10e80:	000b8593          	mv	a1,s7
   10e84:	3a1000ef          	jal	ra,11a24 <memmove>
   10e88:	00842703          	lw	a4,8(s0)
   10e8c:	00042783          	lw	a5,0(s0)
   10e90:	000c0913          	mv	s2,s8
   10e94:	41870733          	sub	a4,a4,s8
   10e98:	01878c33          	add	s8,a5,s8
   10e9c:	00e42423          	sw	a4,8(s0)
   10ea0:	01842023          	sw	s8,0(s0)
   10ea4:	e3dff06f          	j	10ce0 <__sfvwrite_r+0x2ac>
   10ea8:	000a8513          	mv	a0,s5
   10eac:	4a1000ef          	jal	ra,11b4c <_realloc_r>
   10eb0:	00050d13          	mv	s10,a0
   10eb4:	d2051ae3          	bnez	a0,10be8 <__sfvwrite_r+0x1b4>
   10eb8:	01042583          	lw	a1,16(s0)
   10ebc:	000a8513          	mv	a0,s5
   10ec0:	355010ef          	jal	ra,12a14 <_free_r>
   10ec4:	00c41783          	lh	a5,12(s0)
   10ec8:	00c00713          	li	a4,12
   10ecc:	00eaa023          	sw	a4,0(s5)
   10ed0:	f7f7f793          	andi	a5,a5,-129
   10ed4:	e99ff06f          	j	10d6c <__sfvwrite_r+0x338>
   10ed8:	00c00793          	li	a5,12
   10edc:	00faa023          	sw	a5,0(s5)
   10ee0:	00c41783          	lh	a5,12(s0)
   10ee4:	e89ff06f          	j	10d6c <__sfvwrite_r+0x338>
   10ee8:	fff00513          	li	a0,-1
   10eec:	e1dff06f          	j	10d08 <__sfvwrite_r+0x2d4>

00010ef0 <_fwalk>:
   10ef0:	fe010113          	addi	sp,sp,-32
   10ef4:	01512223          	sw	s5,4(sp)
   10ef8:	00112e23          	sw	ra,28(sp)
   10efc:	00812c23          	sw	s0,24(sp)
   10f00:	00912a23          	sw	s1,20(sp)
   10f04:	01212823          	sw	s2,16(sp)
   10f08:	01312623          	sw	s3,12(sp)
   10f0c:	01412423          	sw	s4,8(sp)
   10f10:	01612023          	sw	s6,0(sp)
   10f14:	2e050a93          	addi	s5,a0,736
   10f18:	080a8063          	beqz	s5,10f98 <_fwalk+0xa8>
   10f1c:	00058b13          	mv	s6,a1
   10f20:	00000a13          	li	s4,0
   10f24:	00100993          	li	s3,1
   10f28:	fff00913          	li	s2,-1
   10f2c:	004aa483          	lw	s1,4(s5)
   10f30:	008aa403          	lw	s0,8(s5)
   10f34:	fff48493          	addi	s1,s1,-1
   10f38:	0204c663          	bltz	s1,10f64 <_fwalk+0x74>
   10f3c:	00c45783          	lhu	a5,12(s0)
   10f40:	fff48493          	addi	s1,s1,-1
   10f44:	00f9fc63          	bgeu	s3,a5,10f5c <_fwalk+0x6c>
   10f48:	00e41783          	lh	a5,14(s0)
   10f4c:	00040513          	mv	a0,s0
   10f50:	01278663          	beq	a5,s2,10f5c <_fwalk+0x6c>
   10f54:	000b00e7          	jalr	s6 # 80000000 <__BSS_END__+0x7ffeb11c>
   10f58:	00aa6a33          	or	s4,s4,a0
   10f5c:	06840413          	addi	s0,s0,104
   10f60:	fd249ee3          	bne	s1,s2,10f3c <_fwalk+0x4c>
   10f64:	000aaa83          	lw	s5,0(s5)
   10f68:	fc0a92e3          	bnez	s5,10f2c <_fwalk+0x3c>
   10f6c:	01c12083          	lw	ra,28(sp)
   10f70:	01812403          	lw	s0,24(sp)
   10f74:	000a0513          	mv	a0,s4
   10f78:	01412483          	lw	s1,20(sp)
   10f7c:	01012903          	lw	s2,16(sp)
   10f80:	00c12983          	lw	s3,12(sp)
   10f84:	00812a03          	lw	s4,8(sp)
   10f88:	00412a83          	lw	s5,4(sp)
   10f8c:	00012b03          	lw	s6,0(sp)
   10f90:	02010113          	addi	sp,sp,32
   10f94:	00008067          	ret
   10f98:	00000a13          	li	s4,0
   10f9c:	fd1ff06f          	j	10f6c <_fwalk+0x7c>

00010fa0 <_fwalk_reent>:
   10fa0:	fd010113          	addi	sp,sp,-48
   10fa4:	01512a23          	sw	s5,20(sp)
   10fa8:	02112623          	sw	ra,44(sp)
   10fac:	02812423          	sw	s0,40(sp)
   10fb0:	02912223          	sw	s1,36(sp)
   10fb4:	03212023          	sw	s2,32(sp)
   10fb8:	01312e23          	sw	s3,28(sp)
   10fbc:	01412c23          	sw	s4,24(sp)
   10fc0:	01612823          	sw	s6,16(sp)
   10fc4:	01712623          	sw	s7,12(sp)
   10fc8:	2e050a93          	addi	s5,a0,736
   10fcc:	080a8663          	beqz	s5,11058 <_fwalk_reent+0xb8>
   10fd0:	00058b93          	mv	s7,a1
   10fd4:	00050b13          	mv	s6,a0
   10fd8:	00000a13          	li	s4,0
   10fdc:	00100993          	li	s3,1
   10fe0:	fff00913          	li	s2,-1
   10fe4:	004aa483          	lw	s1,4(s5)
   10fe8:	008aa403          	lw	s0,8(s5)
   10fec:	fff48493          	addi	s1,s1,-1
   10ff0:	0204c863          	bltz	s1,11020 <_fwalk_reent+0x80>
   10ff4:	00c45783          	lhu	a5,12(s0)
   10ff8:	fff48493          	addi	s1,s1,-1
   10ffc:	00f9fe63          	bgeu	s3,a5,11018 <_fwalk_reent+0x78>
   11000:	00e41783          	lh	a5,14(s0)
   11004:	00040593          	mv	a1,s0
   11008:	000b0513          	mv	a0,s6
   1100c:	01278663          	beq	a5,s2,11018 <_fwalk_reent+0x78>
   11010:	000b80e7          	jalr	s7 # 80000000 <__BSS_END__+0x7ffeb11c>
   11014:	00aa6a33          	or	s4,s4,a0
   11018:	06840413          	addi	s0,s0,104
   1101c:	fd249ce3          	bne	s1,s2,10ff4 <_fwalk_reent+0x54>
   11020:	000aaa83          	lw	s5,0(s5)
   11024:	fc0a90e3          	bnez	s5,10fe4 <_fwalk_reent+0x44>
   11028:	02c12083          	lw	ra,44(sp)
   1102c:	02812403          	lw	s0,40(sp)
   11030:	000a0513          	mv	a0,s4
   11034:	02412483          	lw	s1,36(sp)
   11038:	02012903          	lw	s2,32(sp)
   1103c:	01c12983          	lw	s3,28(sp)
   11040:	01812a03          	lw	s4,24(sp)
   11044:	01412a83          	lw	s5,20(sp)
   11048:	01012b03          	lw	s6,16(sp)
   1104c:	00c12b83          	lw	s7,12(sp)
   11050:	03010113          	addi	sp,sp,48
   11054:	00008067          	ret
   11058:	00000a13          	li	s4,0
   1105c:	fcdff06f          	j	11028 <_fwalk_reent+0x88>

00011060 <_malloc_r>:
   11060:	fd010113          	addi	sp,sp,-48
   11064:	02912223          	sw	s1,36(sp)
   11068:	03212023          	sw	s2,32(sp)
   1106c:	02112623          	sw	ra,44(sp)
   11070:	02812423          	sw	s0,40(sp)
   11074:	01312e23          	sw	s3,28(sp)
   11078:	01412c23          	sw	s4,24(sp)
   1107c:	01512a23          	sw	s5,20(sp)
   11080:	01612823          	sw	s6,16(sp)
   11084:	01712623          	sw	s7,12(sp)
   11088:	01812423          	sw	s8,8(sp)
   1108c:	01912223          	sw	s9,4(sp)
   11090:	00b58493          	addi	s1,a1,11
   11094:	01600793          	li	a5,22
   11098:	00050913          	mv	s2,a0
   1109c:	0697e463          	bltu	a5,s1,11104 <_malloc_r+0xa4>
   110a0:	01000793          	li	a5,16
   110a4:	20b7ec63          	bltu	a5,a1,112bc <_malloc_r+0x25c>
   110a8:	29d000ef          	jal	ra,11b44 <__malloc_lock>
   110ac:	01000493          	li	s1,16
   110b0:	01800793          	li	a5,24
   110b4:	00200613          	li	a2,2
   110b8:	c2818993          	addi	s3,gp,-984 # 14a70 <__malloc_av_>
   110bc:	00f987b3          	add	a5,s3,a5
   110c0:	0047a403          	lw	s0,4(a5)
   110c4:	ff878713          	addi	a4,a5,-8
   110c8:	24e40263          	beq	s0,a4,1130c <_malloc_r+0x2ac>
   110cc:	00442783          	lw	a5,4(s0)
   110d0:	00c42683          	lw	a3,12(s0)
   110d4:	00842603          	lw	a2,8(s0)
   110d8:	ffc7f793          	andi	a5,a5,-4
   110dc:	00f407b3          	add	a5,s0,a5
   110e0:	0047a703          	lw	a4,4(a5)
   110e4:	00d62623          	sw	a3,12(a2)
   110e8:	00c6a423          	sw	a2,8(a3)
   110ec:	00176713          	ori	a4,a4,1
   110f0:	00090513          	mv	a0,s2
   110f4:	00e7a223          	sw	a4,4(a5)
   110f8:	251000ef          	jal	ra,11b48 <__malloc_unlock>
   110fc:	00840513          	addi	a0,s0,8
   11100:	1c80006f          	j	112c8 <_malloc_r+0x268>
   11104:	ff84f493          	andi	s1,s1,-8
   11108:	1a04ca63          	bltz	s1,112bc <_malloc_r+0x25c>
   1110c:	1ab4e863          	bltu	s1,a1,112bc <_malloc_r+0x25c>
   11110:	235000ef          	jal	ra,11b44 <__malloc_lock>
   11114:	1f700793          	li	a5,503
   11118:	4897f063          	bgeu	a5,s1,11598 <_malloc_r+0x538>
   1111c:	0094d793          	srli	a5,s1,0x9
   11120:	1c078e63          	beqz	a5,112fc <_malloc_r+0x29c>
   11124:	00400713          	li	a4,4
   11128:	40f76463          	bltu	a4,a5,11530 <_malloc_r+0x4d0>
   1112c:	0064d793          	srli	a5,s1,0x6
   11130:	03978613          	addi	a2,a5,57
   11134:	03878513          	addi	a0,a5,56
   11138:	00361693          	slli	a3,a2,0x3
   1113c:	c2818993          	addi	s3,gp,-984 # 14a70 <__malloc_av_>
   11140:	00d986b3          	add	a3,s3,a3
   11144:	0046a403          	lw	s0,4(a3)
   11148:	ff868693          	addi	a3,a3,-8
   1114c:	02868c63          	beq	a3,s0,11184 <_malloc_r+0x124>
   11150:	00442783          	lw	a5,4(s0)
   11154:	00f00593          	li	a1,15
   11158:	ffc7f793          	andi	a5,a5,-4
   1115c:	40978733          	sub	a4,a5,s1
   11160:	02e5c063          	blt	a1,a4,11180 <_malloc_r+0x120>
   11164:	36075063          	bgez	a4,114c4 <_malloc_r+0x464>
   11168:	00c42403          	lw	s0,12(s0)
   1116c:	00868c63          	beq	a3,s0,11184 <_malloc_r+0x124>
   11170:	00442783          	lw	a5,4(s0)
   11174:	ffc7f793          	andi	a5,a5,-4
   11178:	40978733          	sub	a4,a5,s1
   1117c:	fee5d4e3          	bge	a1,a4,11164 <_malloc_r+0x104>
   11180:	00050613          	mv	a2,a0
   11184:	0109a403          	lw	s0,16(s3)
   11188:	c3018813          	addi	a6,gp,-976 # 14a78 <__malloc_av_+0x8>
   1118c:	19040c63          	beq	s0,a6,11324 <_malloc_r+0x2c4>
   11190:	00442583          	lw	a1,4(s0)
   11194:	00f00713          	li	a4,15
   11198:	ffc5f593          	andi	a1,a1,-4
   1119c:	409587b3          	sub	a5,a1,s1
   111a0:	42f74263          	blt	a4,a5,115c4 <_malloc_r+0x564>
   111a4:	c301ae23          	sw	a6,-964(gp) # 14a84 <__malloc_av_+0x14>
   111a8:	c301ac23          	sw	a6,-968(gp) # 14a80 <__malloc_av_+0x10>
   111ac:	3e07dc63          	bgez	a5,115a4 <_malloc_r+0x544>
   111b0:	1ff00793          	li	a5,511
   111b4:	30b7ee63          	bltu	a5,a1,114d0 <_malloc_r+0x470>
   111b8:	0035d593          	srli	a1,a1,0x3
   111bc:	00158793          	addi	a5,a1,1
   111c0:	00379793          	slli	a5,a5,0x3
   111c4:	0049a503          	lw	a0,4(s3)
   111c8:	00f987b3          	add	a5,s3,a5
   111cc:	0007a683          	lw	a3,0(a5)
   111d0:	4025d593          	srai	a1,a1,0x2
   111d4:	00100713          	li	a4,1
   111d8:	00b71733          	sll	a4,a4,a1
   111dc:	00a76733          	or	a4,a4,a0
   111e0:	ff878593          	addi	a1,a5,-8
   111e4:	00b42623          	sw	a1,12(s0)
   111e8:	00d42423          	sw	a3,8(s0)
   111ec:	c2e1a623          	sw	a4,-980(gp) # 14a74 <__malloc_av_+0x4>
   111f0:	0087a023          	sw	s0,0(a5)
   111f4:	0086a623          	sw	s0,12(a3)
   111f8:	40265793          	srai	a5,a2,0x2
   111fc:	00100693          	li	a3,1
   11200:	00f696b3          	sll	a3,a3,a5
   11204:	12d76a63          	bltu	a4,a3,11338 <_malloc_r+0x2d8>
   11208:	00e6f7b3          	and	a5,a3,a4
   1120c:	02079463          	bnez	a5,11234 <_malloc_r+0x1d4>
   11210:	00169693          	slli	a3,a3,0x1
   11214:	ffc67613          	andi	a2,a2,-4
   11218:	00e6f7b3          	and	a5,a3,a4
   1121c:	00460613          	addi	a2,a2,4
   11220:	00079a63          	bnez	a5,11234 <_malloc_r+0x1d4>
   11224:	00169693          	slli	a3,a3,0x1
   11228:	00e6f7b3          	and	a5,a3,a4
   1122c:	00460613          	addi	a2,a2,4
   11230:	fe078ae3          	beqz	a5,11224 <_malloc_r+0x1c4>
   11234:	00f00513          	li	a0,15
   11238:	00361893          	slli	a7,a2,0x3
   1123c:	011988b3          	add	a7,s3,a7
   11240:	00088593          	mv	a1,a7
   11244:	00060313          	mv	t1,a2
   11248:	00c5a403          	lw	s0,12(a1)
   1124c:	00859a63          	bne	a1,s0,11260 <_malloc_r+0x200>
   11250:	3040006f          	j	11554 <_malloc_r+0x4f4>
   11254:	30075a63          	bgez	a4,11568 <_malloc_r+0x508>
   11258:	00c42403          	lw	s0,12(s0)
   1125c:	2e858c63          	beq	a1,s0,11554 <_malloc_r+0x4f4>
   11260:	00442783          	lw	a5,4(s0)
   11264:	ffc7f793          	andi	a5,a5,-4
   11268:	40978733          	sub	a4,a5,s1
   1126c:	fee554e3          	bge	a0,a4,11254 <_malloc_r+0x1f4>
   11270:	00c42683          	lw	a3,12(s0)
   11274:	00842603          	lw	a2,8(s0)
   11278:	0014e593          	ori	a1,s1,1
   1127c:	00b42223          	sw	a1,4(s0)
   11280:	00d62623          	sw	a3,12(a2)
   11284:	00c6a423          	sw	a2,8(a3)
   11288:	009404b3          	add	s1,s0,s1
   1128c:	c291ae23          	sw	s1,-964(gp) # 14a84 <__malloc_av_+0x14>
   11290:	c291ac23          	sw	s1,-968(gp) # 14a80 <__malloc_av_+0x10>
   11294:	00176693          	ori	a3,a4,1
   11298:	0104a623          	sw	a6,12(s1)
   1129c:	0104a423          	sw	a6,8(s1)
   112a0:	00d4a223          	sw	a3,4(s1)
   112a4:	00f407b3          	add	a5,s0,a5
   112a8:	00090513          	mv	a0,s2
   112ac:	00e7a023          	sw	a4,0(a5)
   112b0:	099000ef          	jal	ra,11b48 <__malloc_unlock>
   112b4:	00840513          	addi	a0,s0,8
   112b8:	0100006f          	j	112c8 <_malloc_r+0x268>
   112bc:	00c00793          	li	a5,12
   112c0:	00f92023          	sw	a5,0(s2)
   112c4:	00000513          	li	a0,0
   112c8:	02c12083          	lw	ra,44(sp)
   112cc:	02812403          	lw	s0,40(sp)
   112d0:	02412483          	lw	s1,36(sp)
   112d4:	02012903          	lw	s2,32(sp)
   112d8:	01c12983          	lw	s3,28(sp)
   112dc:	01812a03          	lw	s4,24(sp)
   112e0:	01412a83          	lw	s5,20(sp)
   112e4:	01012b03          	lw	s6,16(sp)
   112e8:	00c12b83          	lw	s7,12(sp)
   112ec:	00812c03          	lw	s8,8(sp)
   112f0:	00412c83          	lw	s9,4(sp)
   112f4:	03010113          	addi	sp,sp,48
   112f8:	00008067          	ret
   112fc:	20000693          	li	a3,512
   11300:	04000613          	li	a2,64
   11304:	03f00513          	li	a0,63
   11308:	e35ff06f          	j	1113c <_malloc_r+0xdc>
   1130c:	00c7a403          	lw	s0,12(a5)
   11310:	00260613          	addi	a2,a2,2
   11314:	da879ce3          	bne	a5,s0,110cc <_malloc_r+0x6c>
   11318:	0109a403          	lw	s0,16(s3)
   1131c:	c3018813          	addi	a6,gp,-976 # 14a78 <__malloc_av_+0x8>
   11320:	e70418e3          	bne	s0,a6,11190 <_malloc_r+0x130>
   11324:	0049a703          	lw	a4,4(s3)
   11328:	40265793          	srai	a5,a2,0x2
   1132c:	00100693          	li	a3,1
   11330:	00f696b3          	sll	a3,a3,a5
   11334:	ecd77ae3          	bgeu	a4,a3,11208 <_malloc_r+0x1a8>
   11338:	0089a403          	lw	s0,8(s3)
   1133c:	00442a83          	lw	s5,4(s0)
   11340:	ffcafb93          	andi	s7,s5,-4
   11344:	009be863          	bltu	s7,s1,11354 <_malloc_r+0x2f4>
   11348:	409b87b3          	sub	a5,s7,s1
   1134c:	00f00713          	li	a4,15
   11350:	14f74663          	blt	a4,a5,1149c <_malloc_r+0x43c>
   11354:	04c18793          	addi	a5,gp,76 # 14e94 <__malloc_top_pad>
   11358:	03c18c13          	addi	s8,gp,60 # 14e84 <__malloc_sbrk_base>
   1135c:	0007aa83          	lw	s5,0(a5)
   11360:	000c2703          	lw	a4,0(s8)
   11364:	fff00793          	li	a5,-1
   11368:	01740a33          	add	s4,s0,s7
   1136c:	01548ab3          	add	s5,s1,s5
   11370:	32f70c63          	beq	a4,a5,116a8 <_malloc_r+0x648>
   11374:	000017b7          	lui	a5,0x1
   11378:	00f78793          	addi	a5,a5,15 # 100f <register_fini-0xf065>
   1137c:	00fa8ab3          	add	s5,s5,a5
   11380:	fffff7b7          	lui	a5,0xfffff
   11384:	00fafab3          	and	s5,s5,a5
   11388:	000a8593          	mv	a1,s5
   1138c:	00090513          	mv	a0,s2
   11390:	58d000ef          	jal	ra,1211c <_sbrk_r>
   11394:	fff00793          	li	a5,-1
   11398:	00050b13          	mv	s6,a0
   1139c:	26f50e63          	beq	a0,a5,11618 <_malloc_r+0x5b8>
   113a0:	27456a63          	bltu	a0,s4,11614 <_malloc_r+0x5b4>
   113a4:	07018c93          	addi	s9,gp,112 # 14eb8 <__malloc_current_mallinfo>
   113a8:	000ca783          	lw	a5,0(s9)
   113ac:	00fa87b3          	add	a5,s5,a5
   113b0:	06f1a823          	sw	a5,112(gp) # 14eb8 <__malloc_current_mallinfo>
   113b4:	00078713          	mv	a4,a5
   113b8:	38aa0a63          	beq	s4,a0,1174c <_malloc_r+0x6ec>
   113bc:	000c2683          	lw	a3,0(s8)
   113c0:	fff00793          	li	a5,-1
   113c4:	3af68263          	beq	a3,a5,11768 <_malloc_r+0x708>
   113c8:	414b07b3          	sub	a5,s6,s4
   113cc:	00e787b3          	add	a5,a5,a4
   113d0:	06f1a823          	sw	a5,112(gp) # 14eb8 <__malloc_current_mallinfo>
   113d4:	007b7c13          	andi	s8,s6,7
   113d8:	2e0c0a63          	beqz	s8,116cc <_malloc_r+0x66c>
   113dc:	418b0b33          	sub	s6,s6,s8
   113e0:	000017b7          	lui	a5,0x1
   113e4:	008b0b13          	addi	s6,s6,8
   113e8:	fff78a13          	addi	s4,a5,-1 # fff <register_fini-0xf075>
   113ec:	015b0ab3          	add	s5,s6,s5
   113f0:	00878793          	addi	a5,a5,8
   113f4:	014af733          	and	a4,s5,s4
   113f8:	418787b3          	sub	a5,a5,s8
   113fc:	40e787b3          	sub	a5,a5,a4
   11400:	0147fa33          	and	s4,a5,s4
   11404:	000a0593          	mv	a1,s4
   11408:	00090513          	mv	a0,s2
   1140c:	511000ef          	jal	ra,1211c <_sbrk_r>
   11410:	fff00793          	li	a5,-1
   11414:	3af50463          	beq	a0,a5,117bc <_malloc_r+0x75c>
   11418:	41650533          	sub	a0,a0,s6
   1141c:	01450ab3          	add	s5,a0,s4
   11420:	000ca783          	lw	a5,0(s9)
   11424:	c361a823          	sw	s6,-976(gp) # 14a78 <__malloc_av_+0x8>
   11428:	001aea93          	ori	s5,s5,1
   1142c:	00fa07b3          	add	a5,s4,a5
   11430:	06f1a823          	sw	a5,112(gp) # 14eb8 <__malloc_current_mallinfo>
   11434:	015b2223          	sw	s5,4(s6)
   11438:	33340c63          	beq	s0,s3,11770 <_malloc_r+0x710>
   1143c:	00f00613          	li	a2,15
   11440:	33767c63          	bgeu	a2,s7,11778 <_malloc_r+0x718>
   11444:	00442683          	lw	a3,4(s0)
   11448:	ff4b8713          	addi	a4,s7,-12
   1144c:	ff877713          	andi	a4,a4,-8
   11450:	0016f693          	andi	a3,a3,1
   11454:	00e6e6b3          	or	a3,a3,a4
   11458:	00d42223          	sw	a3,4(s0)
   1145c:	00500593          	li	a1,5
   11460:	00e406b3          	add	a3,s0,a4
   11464:	00b6a223          	sw	a1,4(a3)
   11468:	00b6a423          	sw	a1,8(a3)
   1146c:	36e66263          	bltu	a2,a4,117d0 <_malloc_r+0x770>
   11470:	004b2a83          	lw	s5,4(s6)
   11474:	000b0413          	mv	s0,s6
   11478:	04818713          	addi	a4,gp,72 # 14e90 <__malloc_max_sbrked_mem>
   1147c:	00072703          	lw	a4,0(a4)
   11480:	00f77463          	bgeu	a4,a5,11488 <_malloc_r+0x428>
   11484:	04f1a423          	sw	a5,72(gp) # 14e90 <__malloc_max_sbrked_mem>
   11488:	04418713          	addi	a4,gp,68 # 14e8c <__malloc_max_total_mem>
   1148c:	00072703          	lw	a4,0(a4)
   11490:	18f77863          	bgeu	a4,a5,11620 <_malloc_r+0x5c0>
   11494:	04f1a223          	sw	a5,68(gp) # 14e8c <__malloc_max_total_mem>
   11498:	1880006f          	j	11620 <_malloc_r+0x5c0>
   1149c:	0014e713          	ori	a4,s1,1
   114a0:	00e42223          	sw	a4,4(s0)
   114a4:	009404b3          	add	s1,s0,s1
   114a8:	c291a823          	sw	s1,-976(gp) # 14a78 <__malloc_av_+0x8>
   114ac:	0017e793          	ori	a5,a5,1
   114b0:	00090513          	mv	a0,s2
   114b4:	00f4a223          	sw	a5,4(s1)
   114b8:	690000ef          	jal	ra,11b48 <__malloc_unlock>
   114bc:	00840513          	addi	a0,s0,8
   114c0:	e09ff06f          	j	112c8 <_malloc_r+0x268>
   114c4:	00c42683          	lw	a3,12(s0)
   114c8:	00842603          	lw	a2,8(s0)
   114cc:	c11ff06f          	j	110dc <_malloc_r+0x7c>
   114d0:	0095d793          	srli	a5,a1,0x9
   114d4:	00400713          	li	a4,4
   114d8:	12f77463          	bgeu	a4,a5,11600 <_malloc_r+0x5a0>
   114dc:	01400713          	li	a4,20
   114e0:	22f76063          	bltu	a4,a5,11700 <_malloc_r+0x6a0>
   114e4:	05c78693          	addi	a3,a5,92
   114e8:	05b78713          	addi	a4,a5,91
   114ec:	00369693          	slli	a3,a3,0x3
   114f0:	00d986b3          	add	a3,s3,a3
   114f4:	0006a783          	lw	a5,0(a3)
   114f8:	ff868693          	addi	a3,a3,-8
   114fc:	1af68a63          	beq	a3,a5,116b0 <_malloc_r+0x650>
   11500:	0047a703          	lw	a4,4(a5)
   11504:	ffc77713          	andi	a4,a4,-4
   11508:	00e5f663          	bgeu	a1,a4,11514 <_malloc_r+0x4b4>
   1150c:	0087a783          	lw	a5,8(a5)
   11510:	fef698e3          	bne	a3,a5,11500 <_malloc_r+0x4a0>
   11514:	00c7a683          	lw	a3,12(a5)
   11518:	0049a703          	lw	a4,4(s3)
   1151c:	00d42623          	sw	a3,12(s0)
   11520:	00f42423          	sw	a5,8(s0)
   11524:	0086a423          	sw	s0,8(a3)
   11528:	0087a623          	sw	s0,12(a5)
   1152c:	ccdff06f          	j	111f8 <_malloc_r+0x198>
   11530:	01400713          	li	a4,20
   11534:	10f77863          	bgeu	a4,a5,11644 <_malloc_r+0x5e4>
   11538:	05400713          	li	a4,84
   1153c:	1ef76063          	bltu	a4,a5,1171c <_malloc_r+0x6bc>
   11540:	00c4d793          	srli	a5,s1,0xc
   11544:	06f78613          	addi	a2,a5,111
   11548:	06e78513          	addi	a0,a5,110
   1154c:	00361693          	slli	a3,a2,0x3
   11550:	bedff06f          	j	1113c <_malloc_r+0xdc>
   11554:	00130313          	addi	t1,t1,1
   11558:	00337793          	andi	a5,t1,3
   1155c:	00858593          	addi	a1,a1,8
   11560:	ce0794e3          	bnez	a5,11248 <_malloc_r+0x1e8>
   11564:	0fc0006f          	j	11660 <_malloc_r+0x600>
   11568:	00f407b3          	add	a5,s0,a5
   1156c:	0047a703          	lw	a4,4(a5)
   11570:	00c42683          	lw	a3,12(s0)
   11574:	00842603          	lw	a2,8(s0)
   11578:	00176713          	ori	a4,a4,1
   1157c:	00e7a223          	sw	a4,4(a5)
   11580:	00d62623          	sw	a3,12(a2)
   11584:	00090513          	mv	a0,s2
   11588:	00c6a423          	sw	a2,8(a3)
   1158c:	5bc000ef          	jal	ra,11b48 <__malloc_unlock>
   11590:	00840513          	addi	a0,s0,8
   11594:	d35ff06f          	j	112c8 <_malloc_r+0x268>
   11598:	0034d613          	srli	a2,s1,0x3
   1159c:	00848793          	addi	a5,s1,8
   115a0:	b19ff06f          	j	110b8 <_malloc_r+0x58>
   115a4:	00b405b3          	add	a1,s0,a1
   115a8:	0045a783          	lw	a5,4(a1)
   115ac:	00090513          	mv	a0,s2
   115b0:	0017e793          	ori	a5,a5,1
   115b4:	00f5a223          	sw	a5,4(a1)
   115b8:	590000ef          	jal	ra,11b48 <__malloc_unlock>
   115bc:	00840513          	addi	a0,s0,8
   115c0:	d09ff06f          	j	112c8 <_malloc_r+0x268>
   115c4:	0014e713          	ori	a4,s1,1
   115c8:	00e42223          	sw	a4,4(s0)
   115cc:	009404b3          	add	s1,s0,s1
   115d0:	c291ae23          	sw	s1,-964(gp) # 14a84 <__malloc_av_+0x14>
   115d4:	c291ac23          	sw	s1,-968(gp) # 14a80 <__malloc_av_+0x10>
   115d8:	0017e713          	ori	a4,a5,1
   115dc:	0104a623          	sw	a6,12(s1)
   115e0:	0104a423          	sw	a6,8(s1)
   115e4:	00e4a223          	sw	a4,4(s1)
   115e8:	00b405b3          	add	a1,s0,a1
   115ec:	00090513          	mv	a0,s2
   115f0:	00f5a023          	sw	a5,0(a1)
   115f4:	554000ef          	jal	ra,11b48 <__malloc_unlock>
   115f8:	00840513          	addi	a0,s0,8
   115fc:	ccdff06f          	j	112c8 <_malloc_r+0x268>
   11600:	0065d793          	srli	a5,a1,0x6
   11604:	03978693          	addi	a3,a5,57
   11608:	03878713          	addi	a4,a5,56
   1160c:	00369693          	slli	a3,a3,0x3
   11610:	ee1ff06f          	j	114f0 <_malloc_r+0x490>
   11614:	13340263          	beq	s0,s3,11738 <_malloc_r+0x6d8>
   11618:	0089a403          	lw	s0,8(s3)
   1161c:	00442a83          	lw	s5,4(s0)
   11620:	ffcafa93          	andi	s5,s5,-4
   11624:	409a87b3          	sub	a5,s5,s1
   11628:	009ae663          	bltu	s5,s1,11634 <_malloc_r+0x5d4>
   1162c:	00f00713          	li	a4,15
   11630:	e6f746e3          	blt	a4,a5,1149c <_malloc_r+0x43c>
   11634:	00090513          	mv	a0,s2
   11638:	510000ef          	jal	ra,11b48 <__malloc_unlock>
   1163c:	00000513          	li	a0,0
   11640:	c89ff06f          	j	112c8 <_malloc_r+0x268>
   11644:	05c78613          	addi	a2,a5,92
   11648:	05b78513          	addi	a0,a5,91
   1164c:	00361693          	slli	a3,a2,0x3
   11650:	aedff06f          	j	1113c <_malloc_r+0xdc>
   11654:	0088a783          	lw	a5,8(a7)
   11658:	fff60613          	addi	a2,a2,-1
   1165c:	1d179463          	bne	a5,a7,11824 <_malloc_r+0x7c4>
   11660:	00367793          	andi	a5,a2,3
   11664:	ff888893          	addi	a7,a7,-8
   11668:	fe0796e3          	bnez	a5,11654 <_malloc_r+0x5f4>
   1166c:	0049a703          	lw	a4,4(s3)
   11670:	fff6c793          	not	a5,a3
   11674:	00e7f7b3          	and	a5,a5,a4
   11678:	c2f1a623          	sw	a5,-980(gp) # 14a74 <__malloc_av_+0x4>
   1167c:	00169693          	slli	a3,a3,0x1
   11680:	cad7ece3          	bltu	a5,a3,11338 <_malloc_r+0x2d8>
   11684:	ca068ae3          	beqz	a3,11338 <_malloc_r+0x2d8>
   11688:	00f6f733          	and	a4,a3,a5
   1168c:	00071a63          	bnez	a4,116a0 <_malloc_r+0x640>
   11690:	00169693          	slli	a3,a3,0x1
   11694:	00f6f733          	and	a4,a3,a5
   11698:	00430313          	addi	t1,t1,4
   1169c:	fe070ae3          	beqz	a4,11690 <_malloc_r+0x630>
   116a0:	00030613          	mv	a2,t1
   116a4:	b95ff06f          	j	11238 <_malloc_r+0x1d8>
   116a8:	010a8a93          	addi	s5,s5,16
   116ac:	cddff06f          	j	11388 <_malloc_r+0x328>
   116b0:	0049a503          	lw	a0,4(s3)
   116b4:	40275593          	srai	a1,a4,0x2
   116b8:	00100713          	li	a4,1
   116bc:	00b71733          	sll	a4,a4,a1
   116c0:	00a76733          	or	a4,a4,a0
   116c4:	c2e1a623          	sw	a4,-980(gp) # 14a74 <__malloc_av_+0x4>
   116c8:	e55ff06f          	j	1151c <_malloc_r+0x4bc>
   116cc:	000017b7          	lui	a5,0x1
   116d0:	fff78713          	addi	a4,a5,-1 # fff <register_fini-0xf075>
   116d4:	015b0a33          	add	s4,s6,s5
   116d8:	00ea7a33          	and	s4,s4,a4
   116dc:	414787b3          	sub	a5,a5,s4
   116e0:	00e7fa33          	and	s4,a5,a4
   116e4:	000a0593          	mv	a1,s4
   116e8:	00090513          	mv	a0,s2
   116ec:	231000ef          	jal	ra,1211c <_sbrk_r>
   116f0:	fff00793          	li	a5,-1
   116f4:	d2f512e3          	bne	a0,a5,11418 <_malloc_r+0x3b8>
   116f8:	00000a13          	li	s4,0
   116fc:	d25ff06f          	j	11420 <_malloc_r+0x3c0>
   11700:	05400713          	li	a4,84
   11704:	08f76063          	bltu	a4,a5,11784 <_malloc_r+0x724>
   11708:	00c5d793          	srli	a5,a1,0xc
   1170c:	06f78693          	addi	a3,a5,111
   11710:	06e78713          	addi	a4,a5,110
   11714:	00369693          	slli	a3,a3,0x3
   11718:	dd9ff06f          	j	114f0 <_malloc_r+0x490>
   1171c:	15400713          	li	a4,340
   11720:	08f76063          	bltu	a4,a5,117a0 <_malloc_r+0x740>
   11724:	00f4d793          	srli	a5,s1,0xf
   11728:	07878613          	addi	a2,a5,120
   1172c:	07778513          	addi	a0,a5,119
   11730:	00361693          	slli	a3,a2,0x3
   11734:	a09ff06f          	j	1113c <_malloc_r+0xdc>
   11738:	07018c93          	addi	s9,gp,112 # 14eb8 <__malloc_current_mallinfo>
   1173c:	000ca783          	lw	a5,0(s9)
   11740:	00fa8733          	add	a4,s5,a5
   11744:	06e1a823          	sw	a4,112(gp) # 14eb8 <__malloc_current_mallinfo>
   11748:	c75ff06f          	j	113bc <_malloc_r+0x35c>
   1174c:	014a1693          	slli	a3,s4,0x14
   11750:	c60696e3          	bnez	a3,113bc <_malloc_r+0x35c>
   11754:	0089a403          	lw	s0,8(s3)
   11758:	015b8ab3          	add	s5,s7,s5
   1175c:	001aea93          	ori	s5,s5,1
   11760:	01542223          	sw	s5,4(s0)
   11764:	d15ff06f          	j	11478 <_malloc_r+0x418>
   11768:	0361ae23          	sw	s6,60(gp) # 14e84 <__malloc_sbrk_base>
   1176c:	c69ff06f          	j	113d4 <_malloc_r+0x374>
   11770:	000b0413          	mv	s0,s6
   11774:	d05ff06f          	j	11478 <_malloc_r+0x418>
   11778:	00100793          	li	a5,1
   1177c:	00fb2223          	sw	a5,4(s6)
   11780:	eb5ff06f          	j	11634 <_malloc_r+0x5d4>
   11784:	15400713          	li	a4,340
   11788:	06f76263          	bltu	a4,a5,117ec <_malloc_r+0x78c>
   1178c:	00f5d793          	srli	a5,a1,0xf
   11790:	07878693          	addi	a3,a5,120
   11794:	07778713          	addi	a4,a5,119
   11798:	00369693          	slli	a3,a3,0x3
   1179c:	d55ff06f          	j	114f0 <_malloc_r+0x490>
   117a0:	55400713          	li	a4,1364
   117a4:	06f76263          	bltu	a4,a5,11808 <_malloc_r+0x7a8>
   117a8:	0124d793          	srli	a5,s1,0x12
   117ac:	07d78613          	addi	a2,a5,125
   117b0:	07c78513          	addi	a0,a5,124
   117b4:	00361693          	slli	a3,a2,0x3
   117b8:	985ff06f          	j	1113c <_malloc_r+0xdc>
   117bc:	ff8c0c13          	addi	s8,s8,-8
   117c0:	018a8ab3          	add	s5,s5,s8
   117c4:	416a8ab3          	sub	s5,s5,s6
   117c8:	00000a13          	li	s4,0
   117cc:	c55ff06f          	j	11420 <_malloc_r+0x3c0>
   117d0:	00840593          	addi	a1,s0,8
   117d4:	00090513          	mv	a0,s2
   117d8:	23c010ef          	jal	ra,12a14 <_free_r>
   117dc:	0089a403          	lw	s0,8(s3)
   117e0:	000ca783          	lw	a5,0(s9)
   117e4:	00442a83          	lw	s5,4(s0)
   117e8:	c91ff06f          	j	11478 <_malloc_r+0x418>
   117ec:	55400713          	li	a4,1364
   117f0:	02f76463          	bltu	a4,a5,11818 <_malloc_r+0x7b8>
   117f4:	0125d793          	srli	a5,a1,0x12
   117f8:	07d78693          	addi	a3,a5,125
   117fc:	07c78713          	addi	a4,a5,124
   11800:	00369693          	slli	a3,a3,0x3
   11804:	cedff06f          	j	114f0 <_malloc_r+0x490>
   11808:	3f800693          	li	a3,1016
   1180c:	07f00613          	li	a2,127
   11810:	07e00513          	li	a0,126
   11814:	929ff06f          	j	1113c <_malloc_r+0xdc>
   11818:	3f800693          	li	a3,1016
   1181c:	07e00713          	li	a4,126
   11820:	cd1ff06f          	j	114f0 <_malloc_r+0x490>
   11824:	0049a783          	lw	a5,4(s3)
   11828:	e55ff06f          	j	1167c <_malloc_r+0x61c>

0001182c <memchr>:
   1182c:	00357793          	andi	a5,a0,3
   11830:	0ff5f813          	zext.b	a6,a1
   11834:	0c078663          	beqz	a5,11900 <memchr+0xd4>
   11838:	fff60793          	addi	a5,a2,-1
   1183c:	04060e63          	beqz	a2,11898 <memchr+0x6c>
   11840:	00054703          	lbu	a4,0(a0)
   11844:	05070c63          	beq	a4,a6,1189c <memchr+0x70>
   11848:	fff00693          	li	a3,-1
   1184c:	0140006f          	j	11860 <memchr+0x34>
   11850:	fff78793          	addi	a5,a5,-1
   11854:	04d78263          	beq	a5,a3,11898 <memchr+0x6c>
   11858:	00054703          	lbu	a4,0(a0)
   1185c:	05070063          	beq	a4,a6,1189c <memchr+0x70>
   11860:	00150513          	addi	a0,a0,1
   11864:	00357713          	andi	a4,a0,3
   11868:	fe0714e3          	bnez	a4,11850 <memchr+0x24>
   1186c:	00300713          	li	a4,3
   11870:	02f76863          	bltu	a4,a5,118a0 <memchr+0x74>
   11874:	02078263          	beqz	a5,11898 <memchr+0x6c>
   11878:	00054703          	lbu	a4,0(a0)
   1187c:	03070063          	beq	a4,a6,1189c <memchr+0x70>
   11880:	00f507b3          	add	a5,a0,a5
   11884:	00c0006f          	j	11890 <memchr+0x64>
   11888:	00054703          	lbu	a4,0(a0)
   1188c:	01070863          	beq	a4,a6,1189c <memchr+0x70>
   11890:	00150513          	addi	a0,a0,1
   11894:	fea79ae3          	bne	a5,a0,11888 <memchr+0x5c>
   11898:	00000513          	li	a0,0
   1189c:	00008067          	ret
   118a0:	00010737          	lui	a4,0x10
   118a4:	00859893          	slli	a7,a1,0x8
   118a8:	fff70713          	addi	a4,a4,-1 # ffff <register_fini-0x75>
   118ac:	00e8f8b3          	and	a7,a7,a4
   118b0:	0ff5f593          	zext.b	a1,a1
   118b4:	00b8e5b3          	or	a1,a7,a1
   118b8:	01059893          	slli	a7,a1,0x10
   118bc:	00b8e8b3          	or	a7,a7,a1
   118c0:	80808637          	lui	a2,0x80808
   118c4:	feff05b7          	lui	a1,0xfeff0
   118c8:	eff58593          	addi	a1,a1,-257 # fefefeff <__BSS_END__+0xfefdb01b>
   118cc:	08060613          	addi	a2,a2,128 # 80808080 <__BSS_END__+0x807f319c>
   118d0:	00300313          	li	t1,3
   118d4:	00052703          	lw	a4,0(a0)
   118d8:	00e8c733          	xor	a4,a7,a4
   118dc:	00b706b3          	add	a3,a4,a1
   118e0:	fff74713          	not	a4,a4
   118e4:	00e6f733          	and	a4,a3,a4
   118e8:	00c77733          	and	a4,a4,a2
   118ec:	f80716e3          	bnez	a4,11878 <memchr+0x4c>
   118f0:	ffc78793          	addi	a5,a5,-4
   118f4:	00450513          	addi	a0,a0,4
   118f8:	fcf36ee3          	bltu	t1,a5,118d4 <memchr+0xa8>
   118fc:	f79ff06f          	j	11874 <memchr+0x48>
   11900:	00060793          	mv	a5,a2
   11904:	f69ff06f          	j	1186c <memchr+0x40>

00011908 <memcpy>:
   11908:	00a5c7b3          	xor	a5,a1,a0
   1190c:	0037f793          	andi	a5,a5,3
   11910:	00c508b3          	add	a7,a0,a2
   11914:	06079263          	bnez	a5,11978 <memcpy+0x70>
   11918:	00300793          	li	a5,3
   1191c:	04c7fe63          	bgeu	a5,a2,11978 <memcpy+0x70>
   11920:	00357793          	andi	a5,a0,3
   11924:	00050713          	mv	a4,a0
   11928:	06079863          	bnez	a5,11998 <memcpy+0x90>
   1192c:	ffc8f613          	andi	a2,a7,-4
   11930:	fe060793          	addi	a5,a2,-32
   11934:	08f76c63          	bltu	a4,a5,119cc <memcpy+0xc4>
   11938:	02c77c63          	bgeu	a4,a2,11970 <memcpy+0x68>
   1193c:	00058693          	mv	a3,a1
   11940:	00070793          	mv	a5,a4
   11944:	0006a803          	lw	a6,0(a3)
   11948:	00478793          	addi	a5,a5,4
   1194c:	00468693          	addi	a3,a3,4
   11950:	ff07ae23          	sw	a6,-4(a5)
   11954:	fec7e8e3          	bltu	a5,a2,11944 <memcpy+0x3c>
   11958:	fff60793          	addi	a5,a2,-1
   1195c:	40e787b3          	sub	a5,a5,a4
   11960:	ffc7f793          	andi	a5,a5,-4
   11964:	00478793          	addi	a5,a5,4
   11968:	00f70733          	add	a4,a4,a5
   1196c:	00f585b3          	add	a1,a1,a5
   11970:	01176863          	bltu	a4,a7,11980 <memcpy+0x78>
   11974:	00008067          	ret
   11978:	00050713          	mv	a4,a0
   1197c:	ff157ce3          	bgeu	a0,a7,11974 <memcpy+0x6c>
   11980:	0005c783          	lbu	a5,0(a1)
   11984:	00170713          	addi	a4,a4,1
   11988:	00158593          	addi	a1,a1,1
   1198c:	fef70fa3          	sb	a5,-1(a4)
   11990:	ff1768e3          	bltu	a4,a7,11980 <memcpy+0x78>
   11994:	00008067          	ret
   11998:	0005c683          	lbu	a3,0(a1)
   1199c:	00170713          	addi	a4,a4,1
   119a0:	00377793          	andi	a5,a4,3
   119a4:	fed70fa3          	sb	a3,-1(a4)
   119a8:	00158593          	addi	a1,a1,1
   119ac:	f80780e3          	beqz	a5,1192c <memcpy+0x24>
   119b0:	0005c683          	lbu	a3,0(a1)
   119b4:	00170713          	addi	a4,a4,1
   119b8:	00377793          	andi	a5,a4,3
   119bc:	fed70fa3          	sb	a3,-1(a4)
   119c0:	00158593          	addi	a1,a1,1
   119c4:	fc079ae3          	bnez	a5,11998 <memcpy+0x90>
   119c8:	f65ff06f          	j	1192c <memcpy+0x24>
   119cc:	0005a683          	lw	a3,0(a1)
   119d0:	0045a283          	lw	t0,4(a1)
   119d4:	0085af83          	lw	t6,8(a1)
   119d8:	00c5af03          	lw	t5,12(a1)
   119dc:	0105ae83          	lw	t4,16(a1)
   119e0:	0145ae03          	lw	t3,20(a1)
   119e4:	0185a303          	lw	t1,24(a1)
   119e8:	01c5a803          	lw	a6,28(a1)
   119ec:	02458593          	addi	a1,a1,36
   119f0:	00d72023          	sw	a3,0(a4)
   119f4:	ffc5a683          	lw	a3,-4(a1)
   119f8:	00572223          	sw	t0,4(a4)
   119fc:	01f72423          	sw	t6,8(a4)
   11a00:	01e72623          	sw	t5,12(a4)
   11a04:	01d72823          	sw	t4,16(a4)
   11a08:	01c72a23          	sw	t3,20(a4)
   11a0c:	00672c23          	sw	t1,24(a4)
   11a10:	01072e23          	sw	a6,28(a4)
   11a14:	02470713          	addi	a4,a4,36
   11a18:	fed72e23          	sw	a3,-4(a4)
   11a1c:	faf768e3          	bltu	a4,a5,119cc <memcpy+0xc4>
   11a20:	f19ff06f          	j	11938 <memcpy+0x30>

00011a24 <memmove>:
   11a24:	02a5f663          	bgeu	a1,a0,11a50 <memmove+0x2c>
   11a28:	00c587b3          	add	a5,a1,a2
   11a2c:	02f57263          	bgeu	a0,a5,11a50 <memmove+0x2c>
   11a30:	00c50733          	add	a4,a0,a2
   11a34:	0e060a63          	beqz	a2,11b28 <memmove+0x104>
   11a38:	fff78793          	addi	a5,a5,-1
   11a3c:	0007c683          	lbu	a3,0(a5)
   11a40:	fff70713          	addi	a4,a4,-1
   11a44:	00d70023          	sb	a3,0(a4)
   11a48:	fef598e3          	bne	a1,a5,11a38 <memmove+0x14>
   11a4c:	00008067          	ret
   11a50:	00f00793          	li	a5,15
   11a54:	02c7e863          	bltu	a5,a2,11a84 <memmove+0x60>
   11a58:	00050793          	mv	a5,a0
   11a5c:	fff60693          	addi	a3,a2,-1
   11a60:	0c060c63          	beqz	a2,11b38 <memmove+0x114>
   11a64:	00168693          	addi	a3,a3,1
   11a68:	00d786b3          	add	a3,a5,a3
   11a6c:	00158593          	addi	a1,a1,1
   11a70:	fff5c703          	lbu	a4,-1(a1)
   11a74:	00178793          	addi	a5,a5,1
   11a78:	fee78fa3          	sb	a4,-1(a5)
   11a7c:	fed798e3          	bne	a5,a3,11a6c <memmove+0x48>
   11a80:	00008067          	ret
   11a84:	00a5e7b3          	or	a5,a1,a0
   11a88:	0037f793          	andi	a5,a5,3
   11a8c:	0a079063          	bnez	a5,11b2c <memmove+0x108>
   11a90:	ff060893          	addi	a7,a2,-16
   11a94:	ff08f893          	andi	a7,a7,-16
   11a98:	01088893          	addi	a7,a7,16
   11a9c:	01150833          	add	a6,a0,a7
   11aa0:	00058713          	mv	a4,a1
   11aa4:	00050793          	mv	a5,a0
   11aa8:	00072683          	lw	a3,0(a4)
   11aac:	01078793          	addi	a5,a5,16
   11ab0:	01070713          	addi	a4,a4,16
   11ab4:	fed7a823          	sw	a3,-16(a5)
   11ab8:	ff472683          	lw	a3,-12(a4)
   11abc:	fed7aa23          	sw	a3,-12(a5)
   11ac0:	ff872683          	lw	a3,-8(a4)
   11ac4:	fed7ac23          	sw	a3,-8(a5)
   11ac8:	ffc72683          	lw	a3,-4(a4)
   11acc:	fed7ae23          	sw	a3,-4(a5)
   11ad0:	fcf81ce3          	bne	a6,a5,11aa8 <memmove+0x84>
   11ad4:	00c67713          	andi	a4,a2,12
   11ad8:	011585b3          	add	a1,a1,a7
   11adc:	00f67813          	andi	a6,a2,15
   11ae0:	04070e63          	beqz	a4,11b3c <memmove+0x118>
   11ae4:	00058713          	mv	a4,a1
   11ae8:	00078893          	mv	a7,a5
   11aec:	00300e13          	li	t3,3
   11af0:	00470713          	addi	a4,a4,4
   11af4:	ffc72303          	lw	t1,-4(a4)
   11af8:	00488893          	addi	a7,a7,4
   11afc:	40e806b3          	sub	a3,a6,a4
   11b00:	fe68ae23          	sw	t1,-4(a7)
   11b04:	00d586b3          	add	a3,a1,a3
   11b08:	fede64e3          	bltu	t3,a3,11af0 <memmove+0xcc>
   11b0c:	ffc80713          	addi	a4,a6,-4
   11b10:	ffc77713          	andi	a4,a4,-4
   11b14:	00470713          	addi	a4,a4,4
   11b18:	00367613          	andi	a2,a2,3
   11b1c:	00e787b3          	add	a5,a5,a4
   11b20:	00e585b3          	add	a1,a1,a4
   11b24:	f39ff06f          	j	11a5c <memmove+0x38>
   11b28:	00008067          	ret
   11b2c:	fff60693          	addi	a3,a2,-1
   11b30:	00050793          	mv	a5,a0
   11b34:	f31ff06f          	j	11a64 <memmove+0x40>
   11b38:	00008067          	ret
   11b3c:	00080613          	mv	a2,a6
   11b40:	f1dff06f          	j	11a5c <memmove+0x38>

00011b44 <__malloc_lock>:
   11b44:	00008067          	ret

00011b48 <__malloc_unlock>:
   11b48:	00008067          	ret

00011b4c <_realloc_r>:
   11b4c:	fd010113          	addi	sp,sp,-48
   11b50:	01312e23          	sw	s3,28(sp)
   11b54:	02112623          	sw	ra,44(sp)
   11b58:	02812423          	sw	s0,40(sp)
   11b5c:	02912223          	sw	s1,36(sp)
   11b60:	03212023          	sw	s2,32(sp)
   11b64:	01412c23          	sw	s4,24(sp)
   11b68:	01512a23          	sw	s5,20(sp)
   11b6c:	01612823          	sw	s6,16(sp)
   11b70:	01712623          	sw	s7,12(sp)
   11b74:	01812423          	sw	s8,8(sp)
   11b78:	00060993          	mv	s3,a2
   11b7c:	22058a63          	beqz	a1,11db0 <_realloc_r+0x264>
   11b80:	00058b13          	mv	s6,a1
   11b84:	00050a93          	mv	s5,a0
   11b88:	fbdff0ef          	jal	ra,11b44 <__malloc_lock>
   11b8c:	00b98413          	addi	s0,s3,11
   11b90:	01600793          	li	a5,22
   11b94:	0e87fc63          	bgeu	a5,s0,11c8c <_realloc_r+0x140>
   11b98:	ff847413          	andi	s0,s0,-8
   11b9c:	00040713          	mv	a4,s0
   11ba0:	0e044c63          	bltz	s0,11c98 <_realloc_r+0x14c>
   11ba4:	0f346a63          	bltu	s0,s3,11c98 <_realloc_r+0x14c>
   11ba8:	ffcb2783          	lw	a5,-4(s6)
   11bac:	ff8b0913          	addi	s2,s6,-8
   11bb0:	ffc7f493          	andi	s1,a5,-4
   11bb4:	00990a33          	add	s4,s2,s1
   11bb8:	1ae4d263          	bge	s1,a4,11d5c <_realloc_r+0x210>
   11bbc:	c2818693          	addi	a3,gp,-984 # 14a70 <__malloc_av_>
   11bc0:	0086a603          	lw	a2,8(a3)
   11bc4:	004a2683          	lw	a3,4(s4)
   11bc8:	25460663          	beq	a2,s4,11e14 <_realloc_r+0x2c8>
   11bcc:	ffe6f613          	andi	a2,a3,-2
   11bd0:	00ca0633          	add	a2,s4,a2
   11bd4:	00462603          	lw	a2,4(a2)
   11bd8:	00167613          	andi	a2,a2,1
   11bdc:	1a061c63          	bnez	a2,11d94 <_realloc_r+0x248>
   11be0:	ffc6f693          	andi	a3,a3,-4
   11be4:	00d48633          	add	a2,s1,a3
   11be8:	34e65663          	bge	a2,a4,11f34 <_realloc_r+0x3e8>
   11bec:	0017f793          	andi	a5,a5,1
   11bf0:	02079463          	bnez	a5,11c18 <_realloc_r+0xcc>
   11bf4:	ff8b2c03          	lw	s8,-8(s6)
   11bf8:	41890c33          	sub	s8,s2,s8
   11bfc:	004c2783          	lw	a5,4(s8)
   11c00:	ffc7f793          	andi	a5,a5,-4
   11c04:	00d786b3          	add	a3,a5,a3
   11c08:	00968bb3          	add	s7,a3,s1
   11c0c:	0cebd663          	bge	s7,a4,11cd8 <_realloc_r+0x18c>
   11c10:	00f48bb3          	add	s7,s1,a5
   11c14:	34ebd863          	bge	s7,a4,11f64 <_realloc_r+0x418>
   11c18:	00098593          	mv	a1,s3
   11c1c:	000a8513          	mv	a0,s5
   11c20:	c40ff0ef          	jal	ra,11060 <_malloc_r>
   11c24:	00050993          	mv	s3,a0
   11c28:	04050c63          	beqz	a0,11c80 <_realloc_r+0x134>
   11c2c:	ffcb2783          	lw	a5,-4(s6)
   11c30:	ff850713          	addi	a4,a0,-8
   11c34:	ffe7f793          	andi	a5,a5,-2
   11c38:	00f907b3          	add	a5,s2,a5
   11c3c:	30e78a63          	beq	a5,a4,11f50 <_realloc_r+0x404>
   11c40:	ffc48613          	addi	a2,s1,-4
   11c44:	02400793          	li	a5,36
   11c48:	38c7ea63          	bltu	a5,a2,11fdc <_realloc_r+0x490>
   11c4c:	01300713          	li	a4,19
   11c50:	000b2683          	lw	a3,0(s6)
   11c54:	28c76463          	bltu	a4,a2,11edc <_realloc_r+0x390>
   11c58:	00050793          	mv	a5,a0
   11c5c:	000b0713          	mv	a4,s6
   11c60:	00d7a023          	sw	a3,0(a5)
   11c64:	00472683          	lw	a3,4(a4)
   11c68:	00d7a223          	sw	a3,4(a5)
   11c6c:	00872703          	lw	a4,8(a4)
   11c70:	00e7a423          	sw	a4,8(a5)
   11c74:	000b0593          	mv	a1,s6
   11c78:	000a8513          	mv	a0,s5
   11c7c:	599000ef          	jal	ra,12a14 <_free_r>
   11c80:	000a8513          	mv	a0,s5
   11c84:	ec5ff0ef          	jal	ra,11b48 <__malloc_unlock>
   11c88:	01c0006f          	j	11ca4 <_realloc_r+0x158>
   11c8c:	01000413          	li	s0,16
   11c90:	01000713          	li	a4,16
   11c94:	f1347ae3          	bgeu	s0,s3,11ba8 <_realloc_r+0x5c>
   11c98:	00c00793          	li	a5,12
   11c9c:	00faa023          	sw	a5,0(s5)
   11ca0:	00000993          	li	s3,0
   11ca4:	02c12083          	lw	ra,44(sp)
   11ca8:	02812403          	lw	s0,40(sp)
   11cac:	00098513          	mv	a0,s3
   11cb0:	02412483          	lw	s1,36(sp)
   11cb4:	02012903          	lw	s2,32(sp)
   11cb8:	01c12983          	lw	s3,28(sp)
   11cbc:	01812a03          	lw	s4,24(sp)
   11cc0:	01412a83          	lw	s5,20(sp)
   11cc4:	01012b03          	lw	s6,16(sp)
   11cc8:	00c12b83          	lw	s7,12(sp)
   11ccc:	00812c03          	lw	s8,8(sp)
   11cd0:	03010113          	addi	sp,sp,48
   11cd4:	00008067          	ret
   11cd8:	00ca2783          	lw	a5,12(s4)
   11cdc:	008a2703          	lw	a4,8(s4)
   11ce0:	ffc48613          	addi	a2,s1,-4
   11ce4:	02400693          	li	a3,36
   11ce8:	00f72623          	sw	a5,12(a4)
   11cec:	00e7a423          	sw	a4,8(a5)
   11cf0:	008c2703          	lw	a4,8(s8)
   11cf4:	00cc2783          	lw	a5,12(s8)
   11cf8:	008c0993          	addi	s3,s8,8
   11cfc:	017c0a33          	add	s4,s8,s7
   11d00:	00f72623          	sw	a5,12(a4)
   11d04:	00e7a423          	sw	a4,8(a5)
   11d08:	2ec6e063          	bltu	a3,a2,11fe8 <_realloc_r+0x49c>
   11d0c:	01300693          	li	a3,19
   11d10:	000b2703          	lw	a4,0(s6)
   11d14:	00098793          	mv	a5,s3
   11d18:	02c6f263          	bgeu	a3,a2,11d3c <_realloc_r+0x1f0>
   11d1c:	00ec2423          	sw	a4,8(s8)
   11d20:	004b2703          	lw	a4,4(s6)
   11d24:	01b00793          	li	a5,27
   11d28:	00ec2623          	sw	a4,12(s8)
   11d2c:	008b2703          	lw	a4,8(s6)
   11d30:	32c7ee63          	bltu	a5,a2,1206c <_realloc_r+0x520>
   11d34:	010c0793          	addi	a5,s8,16
   11d38:	008b0b13          	addi	s6,s6,8
   11d3c:	00e7a023          	sw	a4,0(a5)
   11d40:	004b2703          	lw	a4,4(s6)
   11d44:	000b8493          	mv	s1,s7
   11d48:	000c0913          	mv	s2,s8
   11d4c:	00e7a223          	sw	a4,4(a5)
   11d50:	008b2703          	lw	a4,8(s6)
   11d54:	00098b13          	mv	s6,s3
   11d58:	00e7a423          	sw	a4,8(a5)
   11d5c:	00492603          	lw	a2,4(s2)
   11d60:	408487b3          	sub	a5,s1,s0
   11d64:	00f00713          	li	a4,15
   11d68:	00167613          	andi	a2,a2,1
   11d6c:	06f76c63          	bltu	a4,a5,11de4 <_realloc_r+0x298>
   11d70:	00c4e633          	or	a2,s1,a2
   11d74:	00c92223          	sw	a2,4(s2)
   11d78:	004a2783          	lw	a5,4(s4)
   11d7c:	0017e793          	ori	a5,a5,1
   11d80:	00fa2223          	sw	a5,4(s4)
   11d84:	000a8513          	mv	a0,s5
   11d88:	dc1ff0ef          	jal	ra,11b48 <__malloc_unlock>
   11d8c:	000b0993          	mv	s3,s6
   11d90:	f15ff06f          	j	11ca4 <_realloc_r+0x158>
   11d94:	0017f793          	andi	a5,a5,1
   11d98:	e80790e3          	bnez	a5,11c18 <_realloc_r+0xcc>
   11d9c:	ff8b2c03          	lw	s8,-8(s6)
   11da0:	41890c33          	sub	s8,s2,s8
   11da4:	004c2783          	lw	a5,4(s8)
   11da8:	ffc7f793          	andi	a5,a5,-4
   11dac:	e65ff06f          	j	11c10 <_realloc_r+0xc4>
   11db0:	02812403          	lw	s0,40(sp)
   11db4:	02c12083          	lw	ra,44(sp)
   11db8:	02412483          	lw	s1,36(sp)
   11dbc:	02012903          	lw	s2,32(sp)
   11dc0:	01c12983          	lw	s3,28(sp)
   11dc4:	01812a03          	lw	s4,24(sp)
   11dc8:	01412a83          	lw	s5,20(sp)
   11dcc:	01012b03          	lw	s6,16(sp)
   11dd0:	00c12b83          	lw	s7,12(sp)
   11dd4:	00812c03          	lw	s8,8(sp)
   11dd8:	00060593          	mv	a1,a2
   11ddc:	03010113          	addi	sp,sp,48
   11de0:	a80ff06f          	j	11060 <_malloc_r>
   11de4:	00866633          	or	a2,a2,s0
   11de8:	00c92223          	sw	a2,4(s2)
   11dec:	008905b3          	add	a1,s2,s0
   11df0:	0017e793          	ori	a5,a5,1
   11df4:	00f5a223          	sw	a5,4(a1)
   11df8:	004a2783          	lw	a5,4(s4)
   11dfc:	00858593          	addi	a1,a1,8
   11e00:	000a8513          	mv	a0,s5
   11e04:	0017e793          	ori	a5,a5,1
   11e08:	00fa2223          	sw	a5,4(s4)
   11e0c:	409000ef          	jal	ra,12a14 <_free_r>
   11e10:	f75ff06f          	j	11d84 <_realloc_r+0x238>
   11e14:	ffc6f693          	andi	a3,a3,-4
   11e18:	00d48633          	add	a2,s1,a3
   11e1c:	01040593          	addi	a1,s0,16
   11e20:	0eb65063          	bge	a2,a1,11f00 <_realloc_r+0x3b4>
   11e24:	0017f793          	andi	a5,a5,1
   11e28:	de0798e3          	bnez	a5,11c18 <_realloc_r+0xcc>
   11e2c:	ff8b2c03          	lw	s8,-8(s6)
   11e30:	41890c33          	sub	s8,s2,s8
   11e34:	004c2783          	lw	a5,4(s8)
   11e38:	ffc7f793          	andi	a5,a5,-4
   11e3c:	00d786b3          	add	a3,a5,a3
   11e40:	00968a33          	add	s4,a3,s1
   11e44:	dcba46e3          	blt	s4,a1,11c10 <_realloc_r+0xc4>
   11e48:	00cc2783          	lw	a5,12(s8)
   11e4c:	008c2703          	lw	a4,8(s8)
   11e50:	ffc48613          	addi	a2,s1,-4
   11e54:	02400693          	li	a3,36
   11e58:	00f72623          	sw	a5,12(a4)
   11e5c:	00e7a423          	sw	a4,8(a5)
   11e60:	008c0993          	addi	s3,s8,8
   11e64:	22c6e663          	bltu	a3,a2,12090 <_realloc_r+0x544>
   11e68:	01300593          	li	a1,19
   11e6c:	000b2703          	lw	a4,0(s6)
   11e70:	00098793          	mv	a5,s3
   11e74:	02c5f263          	bgeu	a1,a2,11e98 <_realloc_r+0x34c>
   11e78:	00ec2423          	sw	a4,8(s8)
   11e7c:	004b2703          	lw	a4,4(s6)
   11e80:	01b00793          	li	a5,27
   11e84:	00ec2623          	sw	a4,12(s8)
   11e88:	24c7ea63          	bltu	a5,a2,120dc <_realloc_r+0x590>
   11e8c:	008b2703          	lw	a4,8(s6)
   11e90:	010c0793          	addi	a5,s8,16
   11e94:	008b0b13          	addi	s6,s6,8
   11e98:	00e7a023          	sw	a4,0(a5)
   11e9c:	004b2703          	lw	a4,4(s6)
   11ea0:	00e7a223          	sw	a4,4(a5)
   11ea4:	008b2703          	lw	a4,8(s6)
   11ea8:	00e7a423          	sw	a4,8(a5)
   11eac:	008c0733          	add	a4,s8,s0
   11eb0:	408a07b3          	sub	a5,s4,s0
   11eb4:	c2e1a823          	sw	a4,-976(gp) # 14a78 <__malloc_av_+0x8>
   11eb8:	0017e793          	ori	a5,a5,1
   11ebc:	00f72223          	sw	a5,4(a4)
   11ec0:	004c2783          	lw	a5,4(s8)
   11ec4:	000a8513          	mv	a0,s5
   11ec8:	0017f793          	andi	a5,a5,1
   11ecc:	0087e433          	or	s0,a5,s0
   11ed0:	008c2223          	sw	s0,4(s8)
   11ed4:	c75ff0ef          	jal	ra,11b48 <__malloc_unlock>
   11ed8:	dcdff06f          	j	11ca4 <_realloc_r+0x158>
   11edc:	00d52023          	sw	a3,0(a0)
   11ee0:	004b2683          	lw	a3,4(s6)
   11ee4:	01b00713          	li	a4,27
   11ee8:	00d52223          	sw	a3,4(a0)
   11eec:	10c76c63          	bltu	a4,a2,12004 <_realloc_r+0x4b8>
   11ef0:	008b0713          	addi	a4,s6,8
   11ef4:	00850793          	addi	a5,a0,8
   11ef8:	008b2683          	lw	a3,8(s6)
   11efc:	d65ff06f          	j	11c60 <_realloc_r+0x114>
   11f00:	00890933          	add	s2,s2,s0
   11f04:	408607b3          	sub	a5,a2,s0
   11f08:	c321a823          	sw	s2,-976(gp) # 14a78 <__malloc_av_+0x8>
   11f0c:	0017e793          	ori	a5,a5,1
   11f10:	00f92223          	sw	a5,4(s2)
   11f14:	ffcb2783          	lw	a5,-4(s6)
   11f18:	000a8513          	mv	a0,s5
   11f1c:	000b0993          	mv	s3,s6
   11f20:	0017f793          	andi	a5,a5,1
   11f24:	0087e433          	or	s0,a5,s0
   11f28:	fe8b2e23          	sw	s0,-4(s6)
   11f2c:	c1dff0ef          	jal	ra,11b48 <__malloc_unlock>
   11f30:	d75ff06f          	j	11ca4 <_realloc_r+0x158>
   11f34:	00ca2783          	lw	a5,12(s4)
   11f38:	008a2703          	lw	a4,8(s4)
   11f3c:	00060493          	mv	s1,a2
   11f40:	00c90a33          	add	s4,s2,a2
   11f44:	00f72623          	sw	a5,12(a4)
   11f48:	00e7a423          	sw	a4,8(a5)
   11f4c:	e11ff06f          	j	11d5c <_realloc_r+0x210>
   11f50:	ffc52783          	lw	a5,-4(a0)
   11f54:	ffc7f793          	andi	a5,a5,-4
   11f58:	00f484b3          	add	s1,s1,a5
   11f5c:	00990a33          	add	s4,s2,s1
   11f60:	dfdff06f          	j	11d5c <_realloc_r+0x210>
   11f64:	00cc2703          	lw	a4,12(s8)
   11f68:	008c2683          	lw	a3,8(s8)
   11f6c:	ffc48613          	addi	a2,s1,-4
   11f70:	02400593          	li	a1,36
   11f74:	00e6a623          	sw	a4,12(a3)
   11f78:	00d72423          	sw	a3,8(a4)
   11f7c:	008c0993          	addi	s3,s8,8
   11f80:	017c0a33          	add	s4,s8,s7
   11f84:	06c5e263          	bltu	a1,a2,11fe8 <_realloc_r+0x49c>
   11f88:	01300513          	li	a0,19
   11f8c:	000b2683          	lw	a3,0(s6)
   11f90:	00098713          	mv	a4,s3
   11f94:	02c57263          	bgeu	a0,a2,11fb8 <_realloc_r+0x46c>
   11f98:	00dc2423          	sw	a3,8(s8)
   11f9c:	004b2703          	lw	a4,4(s6)
   11fa0:	01b00793          	li	a5,27
   11fa4:	00ec2623          	sw	a4,12(s8)
   11fa8:	0ac7e063          	bltu	a5,a2,12048 <_realloc_r+0x4fc>
   11fac:	008b2683          	lw	a3,8(s6)
   11fb0:	010c0713          	addi	a4,s8,16
   11fb4:	008b0b13          	addi	s6,s6,8
   11fb8:	00d72023          	sw	a3,0(a4)
   11fbc:	004b2683          	lw	a3,4(s6)
   11fc0:	000b8493          	mv	s1,s7
   11fc4:	000c0913          	mv	s2,s8
   11fc8:	00d72223          	sw	a3,4(a4)
   11fcc:	008b2783          	lw	a5,8(s6)
   11fd0:	00098b13          	mv	s6,s3
   11fd4:	00f72423          	sw	a5,8(a4)
   11fd8:	d85ff06f          	j	11d5c <_realloc_r+0x210>
   11fdc:	000b0593          	mv	a1,s6
   11fe0:	a45ff0ef          	jal	ra,11a24 <memmove>
   11fe4:	c91ff06f          	j	11c74 <_realloc_r+0x128>
   11fe8:	000b0593          	mv	a1,s6
   11fec:	00098513          	mv	a0,s3
   11ff0:	a35ff0ef          	jal	ra,11a24 <memmove>
   11ff4:	00098b13          	mv	s6,s3
   11ff8:	000b8493          	mv	s1,s7
   11ffc:	000c0913          	mv	s2,s8
   12000:	d5dff06f          	j	11d5c <_realloc_r+0x210>
   12004:	008b2703          	lw	a4,8(s6)
   12008:	00e52423          	sw	a4,8(a0)
   1200c:	00cb2703          	lw	a4,12(s6)
   12010:	00e52623          	sw	a4,12(a0)
   12014:	00f60a63          	beq	a2,a5,12028 <_realloc_r+0x4dc>
   12018:	010b0713          	addi	a4,s6,16
   1201c:	01050793          	addi	a5,a0,16
   12020:	010b2683          	lw	a3,16(s6)
   12024:	c3dff06f          	j	11c60 <_realloc_r+0x114>
   12028:	010b2683          	lw	a3,16(s6)
   1202c:	018b0713          	addi	a4,s6,24
   12030:	01850793          	addi	a5,a0,24
   12034:	00d52823          	sw	a3,16(a0)
   12038:	014b2683          	lw	a3,20(s6)
   1203c:	00d52a23          	sw	a3,20(a0)
   12040:	018b2683          	lw	a3,24(s6)
   12044:	c1dff06f          	j	11c60 <_realloc_r+0x114>
   12048:	008b2783          	lw	a5,8(s6)
   1204c:	00fc2823          	sw	a5,16(s8)
   12050:	00cb2783          	lw	a5,12(s6)
   12054:	00fc2a23          	sw	a5,20(s8)
   12058:	04b60463          	beq	a2,a1,120a0 <_realloc_r+0x554>
   1205c:	010b2683          	lw	a3,16(s6)
   12060:	018c0713          	addi	a4,s8,24
   12064:	010b0b13          	addi	s6,s6,16
   12068:	f51ff06f          	j	11fb8 <_realloc_r+0x46c>
   1206c:	00ec2823          	sw	a4,16(s8)
   12070:	00cb2703          	lw	a4,12(s6)
   12074:	02400793          	li	a5,36
   12078:	00ec2a23          	sw	a4,20(s8)
   1207c:	010b2703          	lw	a4,16(s6)
   12080:	04f60063          	beq	a2,a5,120c0 <_realloc_r+0x574>
   12084:	018c0793          	addi	a5,s8,24
   12088:	010b0b13          	addi	s6,s6,16
   1208c:	cb1ff06f          	j	11d3c <_realloc_r+0x1f0>
   12090:	000b0593          	mv	a1,s6
   12094:	00098513          	mv	a0,s3
   12098:	98dff0ef          	jal	ra,11a24 <memmove>
   1209c:	e11ff06f          	j	11eac <_realloc_r+0x360>
   120a0:	010b2783          	lw	a5,16(s6)
   120a4:	020c0713          	addi	a4,s8,32
   120a8:	018b0b13          	addi	s6,s6,24
   120ac:	00fc2c23          	sw	a5,24(s8)
   120b0:	ffcb2783          	lw	a5,-4(s6)
   120b4:	00fc2e23          	sw	a5,28(s8)
   120b8:	000b2683          	lw	a3,0(s6)
   120bc:	efdff06f          	j	11fb8 <_realloc_r+0x46c>
   120c0:	00ec2c23          	sw	a4,24(s8)
   120c4:	014b2703          	lw	a4,20(s6)
   120c8:	020c0793          	addi	a5,s8,32
   120cc:	018b0b13          	addi	s6,s6,24
   120d0:	00ec2e23          	sw	a4,28(s8)
   120d4:	000b2703          	lw	a4,0(s6)
   120d8:	c65ff06f          	j	11d3c <_realloc_r+0x1f0>
   120dc:	008b2783          	lw	a5,8(s6)
   120e0:	00fc2823          	sw	a5,16(s8)
   120e4:	00cb2783          	lw	a5,12(s6)
   120e8:	00fc2a23          	sw	a5,20(s8)
   120ec:	010b2703          	lw	a4,16(s6)
   120f0:	00d60863          	beq	a2,a3,12100 <_realloc_r+0x5b4>
   120f4:	018c0793          	addi	a5,s8,24
   120f8:	010b0b13          	addi	s6,s6,16
   120fc:	d9dff06f          	j	11e98 <_realloc_r+0x34c>
   12100:	00ec2c23          	sw	a4,24(s8)
   12104:	014b2703          	lw	a4,20(s6)
   12108:	020c0793          	addi	a5,s8,32
   1210c:	018b0b13          	addi	s6,s6,24
   12110:	00ec2e23          	sw	a4,28(s8)
   12114:	000b2703          	lw	a4,0(s6)
   12118:	d81ff06f          	j	11e98 <_realloc_r+0x34c>

0001211c <_sbrk_r>:
   1211c:	ff010113          	addi	sp,sp,-16
   12120:	00812423          	sw	s0,8(sp)
   12124:	00050413          	mv	s0,a0
   12128:	00058513          	mv	a0,a1
   1212c:	0801ac23          	sw	zero,152(gp) # 14ee0 <errno>
   12130:	00112623          	sw	ra,12(sp)
   12134:	274010ef          	jal	ra,133a8 <_sbrk>
   12138:	fff00793          	li	a5,-1
   1213c:	00f50a63          	beq	a0,a5,12150 <_sbrk_r+0x34>
   12140:	00c12083          	lw	ra,12(sp)
   12144:	00812403          	lw	s0,8(sp)
   12148:	01010113          	addi	sp,sp,16
   1214c:	00008067          	ret
   12150:	09818793          	addi	a5,gp,152 # 14ee0 <errno>
   12154:	0007a783          	lw	a5,0(a5)
   12158:	fe0784e3          	beqz	a5,12140 <_sbrk_r+0x24>
   1215c:	00f42023          	sw	a5,0(s0)
   12160:	00c12083          	lw	ra,12(sp)
   12164:	00812403          	lw	s0,8(sp)
   12168:	01010113          	addi	sp,sp,16
   1216c:	00008067          	ret

00012170 <__sread>:
   12170:	ff010113          	addi	sp,sp,-16
   12174:	00812423          	sw	s0,8(sp)
   12178:	00058413          	mv	s0,a1
   1217c:	00e59583          	lh	a1,14(a1)
   12180:	00112623          	sw	ra,12(sp)
   12184:	5d9000ef          	jal	ra,12f5c <_read_r>
   12188:	02054063          	bltz	a0,121a8 <__sread+0x38>
   1218c:	05042783          	lw	a5,80(s0)
   12190:	00c12083          	lw	ra,12(sp)
   12194:	00a787b3          	add	a5,a5,a0
   12198:	04f42823          	sw	a5,80(s0)
   1219c:	00812403          	lw	s0,8(sp)
   121a0:	01010113          	addi	sp,sp,16
   121a4:	00008067          	ret
   121a8:	00c45783          	lhu	a5,12(s0)
   121ac:	fffff737          	lui	a4,0xfffff
   121b0:	fff70713          	addi	a4,a4,-1 # ffffefff <__BSS_END__+0xfffea11b>
   121b4:	00e7f7b3          	and	a5,a5,a4
   121b8:	00f41623          	sh	a5,12(s0)
   121bc:	00c12083          	lw	ra,12(sp)
   121c0:	00812403          	lw	s0,8(sp)
   121c4:	01010113          	addi	sp,sp,16
   121c8:	00008067          	ret

000121cc <__seofread>:
   121cc:	00000513          	li	a0,0
   121d0:	00008067          	ret

000121d4 <__swrite>:
   121d4:	00c59783          	lh	a5,12(a1)
   121d8:	fe010113          	addi	sp,sp,-32
   121dc:	00812c23          	sw	s0,24(sp)
   121e0:	00912a23          	sw	s1,20(sp)
   121e4:	01212823          	sw	s2,16(sp)
   121e8:	01312623          	sw	s3,12(sp)
   121ec:	00112e23          	sw	ra,28(sp)
   121f0:	1007f713          	andi	a4,a5,256
   121f4:	00058413          	mv	s0,a1
   121f8:	00050493          	mv	s1,a0
   121fc:	00060913          	mv	s2,a2
   12200:	00068993          	mv	s3,a3
   12204:	00e59583          	lh	a1,14(a1)
   12208:	02071e63          	bnez	a4,12244 <__swrite+0x70>
   1220c:	fffff737          	lui	a4,0xfffff
   12210:	fff70713          	addi	a4,a4,-1 # ffffefff <__BSS_END__+0xfffea11b>
   12214:	00e7f7b3          	and	a5,a5,a4
   12218:	00f41623          	sh	a5,12(s0)
   1221c:	01812403          	lw	s0,24(sp)
   12220:	01c12083          	lw	ra,28(sp)
   12224:	00098693          	mv	a3,s3
   12228:	00090613          	mv	a2,s2
   1222c:	00c12983          	lw	s3,12(sp)
   12230:	01012903          	lw	s2,16(sp)
   12234:	00048513          	mv	a0,s1
   12238:	01412483          	lw	s1,20(sp)
   1223c:	02010113          	addi	sp,sp,32
   12240:	08c0006f          	j	122cc <_write_r>
   12244:	00200693          	li	a3,2
   12248:	00000613          	li	a2,0
   1224c:	2c1000ef          	jal	ra,12d0c <_lseek_r>
   12250:	00c41783          	lh	a5,12(s0)
   12254:	00e41583          	lh	a1,14(s0)
   12258:	fb5ff06f          	j	1220c <__swrite+0x38>

0001225c <__sseek>:
   1225c:	ff010113          	addi	sp,sp,-16
   12260:	00812423          	sw	s0,8(sp)
   12264:	00058413          	mv	s0,a1
   12268:	00e59583          	lh	a1,14(a1)
   1226c:	00112623          	sw	ra,12(sp)
   12270:	29d000ef          	jal	ra,12d0c <_lseek_r>
   12274:	fff00793          	li	a5,-1
   12278:	02f50463          	beq	a0,a5,122a0 <__sseek+0x44>
   1227c:	00c45783          	lhu	a5,12(s0)
   12280:	00001737          	lui	a4,0x1
   12284:	04a42823          	sw	a0,80(s0)
   12288:	00e7e7b3          	or	a5,a5,a4
   1228c:	00f41623          	sh	a5,12(s0)
   12290:	00c12083          	lw	ra,12(sp)
   12294:	00812403          	lw	s0,8(sp)
   12298:	01010113          	addi	sp,sp,16
   1229c:	00008067          	ret
   122a0:	00c45783          	lhu	a5,12(s0)
   122a4:	fffff737          	lui	a4,0xfffff
   122a8:	fff70713          	addi	a4,a4,-1 # ffffefff <__BSS_END__+0xfffea11b>
   122ac:	00e7f7b3          	and	a5,a5,a4
   122b0:	00f41623          	sh	a5,12(s0)
   122b4:	00c12083          	lw	ra,12(sp)
   122b8:	00812403          	lw	s0,8(sp)
   122bc:	01010113          	addi	sp,sp,16
   122c0:	00008067          	ret

000122c4 <__sclose>:
   122c4:	00e59583          	lh	a1,14(a1)
   122c8:	1cc0006f          	j	12494 <_close_r>

000122cc <_write_r>:
   122cc:	00058793          	mv	a5,a1
   122d0:	ff010113          	addi	sp,sp,-16
   122d4:	00812423          	sw	s0,8(sp)
   122d8:	00060593          	mv	a1,a2
   122dc:	00050413          	mv	s0,a0
   122e0:	00068613          	mv	a2,a3
   122e4:	00078513          	mv	a0,a5
   122e8:	00112623          	sw	ra,12(sp)
   122ec:	0801ac23          	sw	zero,152(gp) # 14ee0 <errno>
   122f0:	158010ef          	jal	ra,13448 <_write>
   122f4:	fff00793          	li	a5,-1
   122f8:	00f50a63          	beq	a0,a5,1230c <_write_r+0x40>
   122fc:	00c12083          	lw	ra,12(sp)
   12300:	00812403          	lw	s0,8(sp)
   12304:	01010113          	addi	sp,sp,16
   12308:	00008067          	ret
   1230c:	09818793          	addi	a5,gp,152 # 14ee0 <errno>
   12310:	0007a783          	lw	a5,0(a5)
   12314:	fe0784e3          	beqz	a5,122fc <_write_r+0x30>
   12318:	00f42023          	sw	a5,0(s0)
   1231c:	00c12083          	lw	ra,12(sp)
   12320:	00812403          	lw	s0,8(sp)
   12324:	01010113          	addi	sp,sp,16
   12328:	00008067          	ret

0001232c <__swsetup_r>:
   1232c:	03818793          	addi	a5,gp,56 # 14e80 <_impure_ptr>
   12330:	0007a783          	lw	a5,0(a5)
   12334:	ff010113          	addi	sp,sp,-16
   12338:	00812423          	sw	s0,8(sp)
   1233c:	00912223          	sw	s1,4(sp)
   12340:	00112623          	sw	ra,12(sp)
   12344:	00050493          	mv	s1,a0
   12348:	00058413          	mv	s0,a1
   1234c:	00078663          	beqz	a5,12358 <__swsetup_r+0x2c>
   12350:	0387a703          	lw	a4,56(a5)
   12354:	08070663          	beqz	a4,123e0 <__swsetup_r+0xb4>
   12358:	00c41703          	lh	a4,12(s0)
   1235c:	01071793          	slli	a5,a4,0x10
   12360:	0107d793          	srli	a5,a5,0x10
   12364:	0087f693          	andi	a3,a5,8
   12368:	08068a63          	beqz	a3,123fc <__swsetup_r+0xd0>
   1236c:	01042683          	lw	a3,16(s0)
   12370:	0a068a63          	beqz	a3,12424 <__swsetup_r+0xf8>
   12374:	0017f713          	andi	a4,a5,1
   12378:	02070863          	beqz	a4,123a8 <__swsetup_r+0x7c>
   1237c:	01442783          	lw	a5,20(s0)
   12380:	00042423          	sw	zero,8(s0)
   12384:	00000513          	li	a0,0
   12388:	40f007b3          	neg	a5,a5
   1238c:	00f42c23          	sw	a5,24(s0)
   12390:	02068a63          	beqz	a3,123c4 <__swsetup_r+0x98>
   12394:	00c12083          	lw	ra,12(sp)
   12398:	00812403          	lw	s0,8(sp)
   1239c:	00412483          	lw	s1,4(sp)
   123a0:	01010113          	addi	sp,sp,16
   123a4:	00008067          	ret
   123a8:	0027f793          	andi	a5,a5,2
   123ac:	00000713          	li	a4,0
   123b0:	00079463          	bnez	a5,123b8 <__swsetup_r+0x8c>
   123b4:	01442703          	lw	a4,20(s0)
   123b8:	00e42423          	sw	a4,8(s0)
   123bc:	00000513          	li	a0,0
   123c0:	fc069ae3          	bnez	a3,12394 <__swsetup_r+0x68>
   123c4:	00c41783          	lh	a5,12(s0)
   123c8:	0807f713          	andi	a4,a5,128
   123cc:	fc0704e3          	beqz	a4,12394 <__swsetup_r+0x68>
   123d0:	0407e793          	ori	a5,a5,64
   123d4:	00f41623          	sh	a5,12(s0)
   123d8:	fff00513          	li	a0,-1
   123dc:	fb9ff06f          	j	12394 <__swsetup_r+0x68>
   123e0:	00078513          	mv	a0,a5
   123e4:	e08fe0ef          	jal	ra,109ec <__sinit>
   123e8:	00c41703          	lh	a4,12(s0)
   123ec:	01071793          	slli	a5,a4,0x10
   123f0:	0107d793          	srli	a5,a5,0x10
   123f4:	0087f693          	andi	a3,a5,8
   123f8:	f6069ae3          	bnez	a3,1236c <__swsetup_r+0x40>
   123fc:	0107f693          	andi	a3,a5,16
   12400:	06068e63          	beqz	a3,1247c <__swsetup_r+0x150>
   12404:	0047f793          	andi	a5,a5,4
   12408:	04079063          	bnez	a5,12448 <__swsetup_r+0x11c>
   1240c:	01042683          	lw	a3,16(s0)
   12410:	00876793          	ori	a5,a4,8
   12414:	00f41623          	sh	a5,12(s0)
   12418:	01079793          	slli	a5,a5,0x10
   1241c:	0107d793          	srli	a5,a5,0x10
   12420:	f4069ae3          	bnez	a3,12374 <__swsetup_r+0x48>
   12424:	2807f713          	andi	a4,a5,640
   12428:	20000613          	li	a2,512
   1242c:	f4c704e3          	beq	a4,a2,12374 <__swsetup_r+0x48>
   12430:	00040593          	mv	a1,s0
   12434:	00048513          	mv	a0,s1
   12438:	205000ef          	jal	ra,12e3c <__smakebuf_r>
   1243c:	00c45783          	lhu	a5,12(s0)
   12440:	01042683          	lw	a3,16(s0)
   12444:	f31ff06f          	j	12374 <__swsetup_r+0x48>
   12448:	03042583          	lw	a1,48(s0)
   1244c:	00058e63          	beqz	a1,12468 <__swsetup_r+0x13c>
   12450:	04040793          	addi	a5,s0,64
   12454:	00f58863          	beq	a1,a5,12464 <__swsetup_r+0x138>
   12458:	00048513          	mv	a0,s1
   1245c:	5b8000ef          	jal	ra,12a14 <_free_r>
   12460:	00c41703          	lh	a4,12(s0)
   12464:	02042823          	sw	zero,48(s0)
   12468:	01042683          	lw	a3,16(s0)
   1246c:	fdb77713          	andi	a4,a4,-37
   12470:	00042223          	sw	zero,4(s0)
   12474:	00d42023          	sw	a3,0(s0)
   12478:	f99ff06f          	j	12410 <__swsetup_r+0xe4>
   1247c:	00900793          	li	a5,9
   12480:	00f4a023          	sw	a5,0(s1)
   12484:	04076713          	ori	a4,a4,64
   12488:	00e41623          	sh	a4,12(s0)
   1248c:	fff00513          	li	a0,-1
   12490:	f05ff06f          	j	12394 <__swsetup_r+0x68>

00012494 <_close_r>:
   12494:	ff010113          	addi	sp,sp,-16
   12498:	00812423          	sw	s0,8(sp)
   1249c:	00050413          	mv	s0,a0
   124a0:	00058513          	mv	a0,a1
   124a4:	0801ac23          	sw	zero,152(gp) # 14ee0 <errno>
   124a8:	00112623          	sw	ra,12(sp)
   124ac:	511000ef          	jal	ra,131bc <_close>
   124b0:	fff00793          	li	a5,-1
   124b4:	00f50a63          	beq	a0,a5,124c8 <_close_r+0x34>
   124b8:	00c12083          	lw	ra,12(sp)
   124bc:	00812403          	lw	s0,8(sp)
   124c0:	01010113          	addi	sp,sp,16
   124c4:	00008067          	ret
   124c8:	09818793          	addi	a5,gp,152 # 14ee0 <errno>
   124cc:	0007a783          	lw	a5,0(a5)
   124d0:	fe0784e3          	beqz	a5,124b8 <_close_r+0x24>
   124d4:	00f42023          	sw	a5,0(s0)
   124d8:	00c12083          	lw	ra,12(sp)
   124dc:	00812403          	lw	s0,8(sp)
   124e0:	01010113          	addi	sp,sp,16
   124e4:	00008067          	ret

000124e8 <_fclose_r>:
   124e8:	ff010113          	addi	sp,sp,-16
   124ec:	00112623          	sw	ra,12(sp)
   124f0:	00812423          	sw	s0,8(sp)
   124f4:	00912223          	sw	s1,4(sp)
   124f8:	01212023          	sw	s2,0(sp)
   124fc:	02058063          	beqz	a1,1251c <_fclose_r+0x34>
   12500:	00050493          	mv	s1,a0
   12504:	00058413          	mv	s0,a1
   12508:	00050663          	beqz	a0,12514 <_fclose_r+0x2c>
   1250c:	03852783          	lw	a5,56(a0)
   12510:	0a078c63          	beqz	a5,125c8 <_fclose_r+0xe0>
   12514:	00c41783          	lh	a5,12(s0)
   12518:	02079263          	bnez	a5,1253c <_fclose_r+0x54>
   1251c:	00c12083          	lw	ra,12(sp)
   12520:	00812403          	lw	s0,8(sp)
   12524:	00000913          	li	s2,0
   12528:	00090513          	mv	a0,s2
   1252c:	00412483          	lw	s1,4(sp)
   12530:	00012903          	lw	s2,0(sp)
   12534:	01010113          	addi	sp,sp,16
   12538:	00008067          	ret
   1253c:	00040593          	mv	a1,s0
   12540:	00048513          	mv	a0,s1
   12544:	0c4000ef          	jal	ra,12608 <__sflush_r>
   12548:	02c42783          	lw	a5,44(s0)
   1254c:	00050913          	mv	s2,a0
   12550:	00078a63          	beqz	a5,12564 <_fclose_r+0x7c>
   12554:	01c42583          	lw	a1,28(s0)
   12558:	00048513          	mv	a0,s1
   1255c:	000780e7          	jalr	a5
   12560:	06054c63          	bltz	a0,125d8 <_fclose_r+0xf0>
   12564:	00c45783          	lhu	a5,12(s0)
   12568:	0807f793          	andi	a5,a5,128
   1256c:	06079e63          	bnez	a5,125e8 <_fclose_r+0x100>
   12570:	03042583          	lw	a1,48(s0)
   12574:	00058c63          	beqz	a1,1258c <_fclose_r+0xa4>
   12578:	04040793          	addi	a5,s0,64
   1257c:	00f58663          	beq	a1,a5,12588 <_fclose_r+0xa0>
   12580:	00048513          	mv	a0,s1
   12584:	490000ef          	jal	ra,12a14 <_free_r>
   12588:	02042823          	sw	zero,48(s0)
   1258c:	04442583          	lw	a1,68(s0)
   12590:	00058863          	beqz	a1,125a0 <_fclose_r+0xb8>
   12594:	00048513          	mv	a0,s1
   12598:	47c000ef          	jal	ra,12a14 <_free_r>
   1259c:	04042223          	sw	zero,68(s0)
   125a0:	c5cfe0ef          	jal	ra,109fc <__sfp_lock_acquire>
   125a4:	00041623          	sh	zero,12(s0)
   125a8:	c58fe0ef          	jal	ra,10a00 <__sfp_lock_release>
   125ac:	00c12083          	lw	ra,12(sp)
   125b0:	00812403          	lw	s0,8(sp)
   125b4:	00090513          	mv	a0,s2
   125b8:	00412483          	lw	s1,4(sp)
   125bc:	00012903          	lw	s2,0(sp)
   125c0:	01010113          	addi	sp,sp,16
   125c4:	00008067          	ret
   125c8:	c24fe0ef          	jal	ra,109ec <__sinit>
   125cc:	00c41783          	lh	a5,12(s0)
   125d0:	f40786e3          	beqz	a5,1251c <_fclose_r+0x34>
   125d4:	f69ff06f          	j	1253c <_fclose_r+0x54>
   125d8:	00c45783          	lhu	a5,12(s0)
   125dc:	fff00913          	li	s2,-1
   125e0:	0807f793          	andi	a5,a5,128
   125e4:	f80786e3          	beqz	a5,12570 <_fclose_r+0x88>
   125e8:	01042583          	lw	a1,16(s0)
   125ec:	00048513          	mv	a0,s1
   125f0:	424000ef          	jal	ra,12a14 <_free_r>
   125f4:	f7dff06f          	j	12570 <_fclose_r+0x88>

000125f8 <fclose>:
   125f8:	03818793          	addi	a5,gp,56 # 14e80 <_impure_ptr>
   125fc:	00050593          	mv	a1,a0
   12600:	0007a503          	lw	a0,0(a5)
   12604:	ee5ff06f          	j	124e8 <_fclose_r>

00012608 <__sflush_r>:
   12608:	00c59783          	lh	a5,12(a1)
   1260c:	fe010113          	addi	sp,sp,-32
   12610:	00812c23          	sw	s0,24(sp)
   12614:	01079713          	slli	a4,a5,0x10
   12618:	01075713          	srli	a4,a4,0x10
   1261c:	01312623          	sw	s3,12(sp)
   12620:	00112e23          	sw	ra,28(sp)
   12624:	00912a23          	sw	s1,20(sp)
   12628:	01212823          	sw	s2,16(sp)
   1262c:	00877693          	andi	a3,a4,8
   12630:	00058413          	mv	s0,a1
   12634:	00050993          	mv	s3,a0
   12638:	10069a63          	bnez	a3,1274c <__sflush_r+0x144>
   1263c:	00001737          	lui	a4,0x1
   12640:	80070713          	addi	a4,a4,-2048 # 800 <register_fini-0xf874>
   12644:	0045a683          	lw	a3,4(a1)
   12648:	00e7e7b3          	or	a5,a5,a4
   1264c:	00f59623          	sh	a5,12(a1)
   12650:	18d05063          	blez	a3,127d0 <__sflush_r+0x1c8>
   12654:	02842703          	lw	a4,40(s0)
   12658:	0c070a63          	beqz	a4,1272c <__sflush_r+0x124>
   1265c:	01079793          	slli	a5,a5,0x10
   12660:	0107d793          	srli	a5,a5,0x10
   12664:	0009a483          	lw	s1,0(s3)
   12668:	01379693          	slli	a3,a5,0x13
   1266c:	0009a023          	sw	zero,0(s3)
   12670:	01c42583          	lw	a1,28(s0)
   12674:	1606c463          	bltz	a3,127dc <__sflush_r+0x1d4>
   12678:	00100693          	li	a3,1
   1267c:	00000613          	li	a2,0
   12680:	00098513          	mv	a0,s3
   12684:	000700e7          	jalr	a4
   12688:	fff00793          	li	a5,-1
   1268c:	18f50863          	beq	a0,a5,1281c <__sflush_r+0x214>
   12690:	00c45783          	lhu	a5,12(s0)
   12694:	02842703          	lw	a4,40(s0)
   12698:	01c42583          	lw	a1,28(s0)
   1269c:	0047f793          	andi	a5,a5,4
   126a0:	00078e63          	beqz	a5,126bc <__sflush_r+0xb4>
   126a4:	00442683          	lw	a3,4(s0)
   126a8:	03042783          	lw	a5,48(s0)
   126ac:	40d50533          	sub	a0,a0,a3
   126b0:	00078663          	beqz	a5,126bc <__sflush_r+0xb4>
   126b4:	03c42783          	lw	a5,60(s0)
   126b8:	40f50533          	sub	a0,a0,a5
   126bc:	00050613          	mv	a2,a0
   126c0:	00000693          	li	a3,0
   126c4:	00098513          	mv	a0,s3
   126c8:	000700e7          	jalr	a4
   126cc:	fff00793          	li	a5,-1
   126d0:	10f51a63          	bne	a0,a5,127e4 <__sflush_r+0x1dc>
   126d4:	0009a703          	lw	a4,0(s3)
   126d8:	00c41783          	lh	a5,12(s0)
   126dc:	16070463          	beqz	a4,12844 <__sflush_r+0x23c>
   126e0:	01d00693          	li	a3,29
   126e4:	00d70663          	beq	a4,a3,126f0 <__sflush_r+0xe8>
   126e8:	01600693          	li	a3,22
   126ec:	0cd71063          	bne	a4,a3,127ac <__sflush_r+0x1a4>
   126f0:	01042683          	lw	a3,16(s0)
   126f4:	fffff737          	lui	a4,0xfffff
   126f8:	7ff70713          	addi	a4,a4,2047 # fffff7ff <__BSS_END__+0xfffea91b>
   126fc:	00e7f7b3          	and	a5,a5,a4
   12700:	00f41623          	sh	a5,12(s0)
   12704:	00042223          	sw	zero,4(s0)
   12708:	00d42023          	sw	a3,0(s0)
   1270c:	03042583          	lw	a1,48(s0)
   12710:	0099a023          	sw	s1,0(s3)
   12714:	00058c63          	beqz	a1,1272c <__sflush_r+0x124>
   12718:	04040793          	addi	a5,s0,64
   1271c:	00f58663          	beq	a1,a5,12728 <__sflush_r+0x120>
   12720:	00098513          	mv	a0,s3
   12724:	2f0000ef          	jal	ra,12a14 <_free_r>
   12728:	02042823          	sw	zero,48(s0)
   1272c:	00000513          	li	a0,0
   12730:	01c12083          	lw	ra,28(sp)
   12734:	01812403          	lw	s0,24(sp)
   12738:	01412483          	lw	s1,20(sp)
   1273c:	01012903          	lw	s2,16(sp)
   12740:	00c12983          	lw	s3,12(sp)
   12744:	02010113          	addi	sp,sp,32
   12748:	00008067          	ret
   1274c:	0105a903          	lw	s2,16(a1)
   12750:	fc090ee3          	beqz	s2,1272c <__sflush_r+0x124>
   12754:	0005a483          	lw	s1,0(a1)
   12758:	00377713          	andi	a4,a4,3
   1275c:	0125a023          	sw	s2,0(a1)
   12760:	412484b3          	sub	s1,s1,s2
   12764:	00000793          	li	a5,0
   12768:	00071463          	bnez	a4,12770 <__sflush_r+0x168>
   1276c:	0145a783          	lw	a5,20(a1)
   12770:	00f42423          	sw	a5,8(s0)
   12774:	00904863          	bgtz	s1,12784 <__sflush_r+0x17c>
   12778:	fb5ff06f          	j	1272c <__sflush_r+0x124>
   1277c:	00a90933          	add	s2,s2,a0
   12780:	fa9056e3          	blez	s1,1272c <__sflush_r+0x124>
   12784:	02442783          	lw	a5,36(s0)
   12788:	01c42583          	lw	a1,28(s0)
   1278c:	00048693          	mv	a3,s1
   12790:	00090613          	mv	a2,s2
   12794:	00098513          	mv	a0,s3
   12798:	000780e7          	jalr	a5
   1279c:	40a484b3          	sub	s1,s1,a0
   127a0:	fca04ee3          	bgtz	a0,1277c <__sflush_r+0x174>
   127a4:	00c45783          	lhu	a5,12(s0)
   127a8:	fff00513          	li	a0,-1
   127ac:	0407e793          	ori	a5,a5,64
   127b0:	00f41623          	sh	a5,12(s0)
   127b4:	01c12083          	lw	ra,28(sp)
   127b8:	01812403          	lw	s0,24(sp)
   127bc:	01412483          	lw	s1,20(sp)
   127c0:	01012903          	lw	s2,16(sp)
   127c4:	00c12983          	lw	s3,12(sp)
   127c8:	02010113          	addi	sp,sp,32
   127cc:	00008067          	ret
   127d0:	03c5a703          	lw	a4,60(a1)
   127d4:	e8e040e3          	bgtz	a4,12654 <__sflush_r+0x4c>
   127d8:	f55ff06f          	j	1272c <__sflush_r+0x124>
   127dc:	05042503          	lw	a0,80(s0)
   127e0:	ebdff06f          	j	1269c <__sflush_r+0x94>
   127e4:	00c45783          	lhu	a5,12(s0)
   127e8:	fffff737          	lui	a4,0xfffff
   127ec:	7ff70713          	addi	a4,a4,2047 # fffff7ff <__BSS_END__+0xfffea91b>
   127f0:	00e7f7b3          	and	a5,a5,a4
   127f4:	01042683          	lw	a3,16(s0)
   127f8:	01079793          	slli	a5,a5,0x10
   127fc:	4107d793          	srai	a5,a5,0x10
   12800:	00f41623          	sh	a5,12(s0)
   12804:	00042223          	sw	zero,4(s0)
   12808:	00d42023          	sw	a3,0(s0)
   1280c:	01379713          	slli	a4,a5,0x13
   12810:	ee075ee3          	bgez	a4,1270c <__sflush_r+0x104>
   12814:	04a42823          	sw	a0,80(s0)
   12818:	ef5ff06f          	j	1270c <__sflush_r+0x104>
   1281c:	0009a783          	lw	a5,0(s3)
   12820:	e60788e3          	beqz	a5,12690 <__sflush_r+0x88>
   12824:	01d00713          	li	a4,29
   12828:	02e78863          	beq	a5,a4,12858 <__sflush_r+0x250>
   1282c:	01600713          	li	a4,22
   12830:	02e78463          	beq	a5,a4,12858 <__sflush_r+0x250>
   12834:	00c45783          	lhu	a5,12(s0)
   12838:	0407e793          	ori	a5,a5,64
   1283c:	00f41623          	sh	a5,12(s0)
   12840:	ef1ff06f          	j	12730 <__sflush_r+0x128>
   12844:	fffff737          	lui	a4,0xfffff
   12848:	7ff70713          	addi	a4,a4,2047 # fffff7ff <__BSS_END__+0xfffea91b>
   1284c:	01042683          	lw	a3,16(s0)
   12850:	00e7f7b3          	and	a5,a5,a4
   12854:	fadff06f          	j	12800 <__sflush_r+0x1f8>
   12858:	0099a023          	sw	s1,0(s3)
   1285c:	00000513          	li	a0,0
   12860:	ed1ff06f          	j	12730 <__sflush_r+0x128>

00012864 <_fflush_r>:
   12864:	fe010113          	addi	sp,sp,-32
   12868:	00812c23          	sw	s0,24(sp)
   1286c:	00112e23          	sw	ra,28(sp)
   12870:	00050413          	mv	s0,a0
   12874:	00050663          	beqz	a0,12880 <_fflush_r+0x1c>
   12878:	03852783          	lw	a5,56(a0)
   1287c:	02078063          	beqz	a5,1289c <_fflush_r+0x38>
   12880:	00c59783          	lh	a5,12(a1)
   12884:	02079663          	bnez	a5,128b0 <_fflush_r+0x4c>
   12888:	01c12083          	lw	ra,28(sp)
   1288c:	01812403          	lw	s0,24(sp)
   12890:	00000513          	li	a0,0
   12894:	02010113          	addi	sp,sp,32
   12898:	00008067          	ret
   1289c:	00b12623          	sw	a1,12(sp)
   128a0:	94cfe0ef          	jal	ra,109ec <__sinit>
   128a4:	00c12583          	lw	a1,12(sp)
   128a8:	00c59783          	lh	a5,12(a1)
   128ac:	fc078ee3          	beqz	a5,12888 <_fflush_r+0x24>
   128b0:	00040513          	mv	a0,s0
   128b4:	01812403          	lw	s0,24(sp)
   128b8:	01c12083          	lw	ra,28(sp)
   128bc:	02010113          	addi	sp,sp,32
   128c0:	d49ff06f          	j	12608 <__sflush_r>

000128c4 <fflush>:
   128c4:	00050593          	mv	a1,a0
   128c8:	00050863          	beqz	a0,128d8 <fflush+0x14>
   128cc:	03818793          	addi	a5,gp,56 # 14e80 <_impure_ptr>
   128d0:	0007a503          	lw	a0,0(a5)
   128d4:	f91ff06f          	j	12864 <_fflush_r>
   128d8:	03018793          	addi	a5,gp,48 # 14e78 <_global_impure_ptr>
   128dc:	0007a503          	lw	a0,0(a5)
   128e0:	00000597          	auipc	a1,0x0
   128e4:	f8458593          	addi	a1,a1,-124 # 12864 <_fflush_r>
   128e8:	eb8fe06f          	j	10fa0 <_fwalk_reent>

000128ec <_malloc_trim_r>:
   128ec:	fe010113          	addi	sp,sp,-32
   128f0:	00812c23          	sw	s0,24(sp)
   128f4:	00912a23          	sw	s1,20(sp)
   128f8:	01212823          	sw	s2,16(sp)
   128fc:	01312623          	sw	s3,12(sp)
   12900:	00058413          	mv	s0,a1
   12904:	00112e23          	sw	ra,28(sp)
   12908:	c2818993          	addi	s3,gp,-984 # 14a70 <__malloc_av_>
   1290c:	00050913          	mv	s2,a0
   12910:	a34ff0ef          	jal	ra,11b44 <__malloc_lock>
   12914:	0089a683          	lw	a3,8(s3)
   12918:	00001737          	lui	a4,0x1
   1291c:	fef70793          	addi	a5,a4,-17 # fef <register_fini-0xf085>
   12920:	0046a483          	lw	s1,4(a3)
   12924:	40878433          	sub	s0,a5,s0
   12928:	ffc4f493          	andi	s1,s1,-4
   1292c:	00940433          	add	s0,s0,s1
   12930:	00c45413          	srli	s0,s0,0xc
   12934:	fff40413          	addi	s0,s0,-1
   12938:	00c41413          	slli	s0,s0,0xc
   1293c:	00e44e63          	blt	s0,a4,12958 <_malloc_trim_r+0x6c>
   12940:	00000593          	li	a1,0
   12944:	00090513          	mv	a0,s2
   12948:	fd4ff0ef          	jal	ra,1211c <_sbrk_r>
   1294c:	0089a783          	lw	a5,8(s3)
   12950:	009787b3          	add	a5,a5,s1
   12954:	02f50663          	beq	a0,a5,12980 <_malloc_trim_r+0x94>
   12958:	00090513          	mv	a0,s2
   1295c:	9ecff0ef          	jal	ra,11b48 <__malloc_unlock>
   12960:	01c12083          	lw	ra,28(sp)
   12964:	01812403          	lw	s0,24(sp)
   12968:	01412483          	lw	s1,20(sp)
   1296c:	01012903          	lw	s2,16(sp)
   12970:	00c12983          	lw	s3,12(sp)
   12974:	00000513          	li	a0,0
   12978:	02010113          	addi	sp,sp,32
   1297c:	00008067          	ret
   12980:	408005b3          	neg	a1,s0
   12984:	00090513          	mv	a0,s2
   12988:	f94ff0ef          	jal	ra,1211c <_sbrk_r>
   1298c:	fff00793          	li	a5,-1
   12990:	04f50663          	beq	a0,a5,129dc <_malloc_trim_r+0xf0>
   12994:	07018793          	addi	a5,gp,112 # 14eb8 <__malloc_current_mallinfo>
   12998:	0007a783          	lw	a5,0(a5)
   1299c:	0089a703          	lw	a4,8(s3)
   129a0:	408484b3          	sub	s1,s1,s0
   129a4:	0014e493          	ori	s1,s1,1
   129a8:	40878433          	sub	s0,a5,s0
   129ac:	00090513          	mv	a0,s2
   129b0:	00972223          	sw	s1,4(a4)
   129b4:	0681a823          	sw	s0,112(gp) # 14eb8 <__malloc_current_mallinfo>
   129b8:	990ff0ef          	jal	ra,11b48 <__malloc_unlock>
   129bc:	01c12083          	lw	ra,28(sp)
   129c0:	01812403          	lw	s0,24(sp)
   129c4:	01412483          	lw	s1,20(sp)
   129c8:	01012903          	lw	s2,16(sp)
   129cc:	00c12983          	lw	s3,12(sp)
   129d0:	00100513          	li	a0,1
   129d4:	02010113          	addi	sp,sp,32
   129d8:	00008067          	ret
   129dc:	00000593          	li	a1,0
   129e0:	00090513          	mv	a0,s2
   129e4:	f38ff0ef          	jal	ra,1211c <_sbrk_r>
   129e8:	0089a703          	lw	a4,8(s3)
   129ec:	00f00693          	li	a3,15
   129f0:	40e507b3          	sub	a5,a0,a4
   129f4:	f6f6d2e3          	bge	a3,a5,12958 <_malloc_trim_r+0x6c>
   129f8:	03c18693          	addi	a3,gp,60 # 14e84 <__malloc_sbrk_base>
   129fc:	0006a683          	lw	a3,0(a3)
   12a00:	0017e793          	ori	a5,a5,1
   12a04:	00f72223          	sw	a5,4(a4)
   12a08:	40d50533          	sub	a0,a0,a3
   12a0c:	06a1a823          	sw	a0,112(gp) # 14eb8 <__malloc_current_mallinfo>
   12a10:	f49ff06f          	j	12958 <_malloc_trim_r+0x6c>

00012a14 <_free_r>:
   12a14:	12058663          	beqz	a1,12b40 <_free_r+0x12c>
   12a18:	ff010113          	addi	sp,sp,-16
   12a1c:	00812423          	sw	s0,8(sp)
   12a20:	00912223          	sw	s1,4(sp)
   12a24:	00058413          	mv	s0,a1
   12a28:	00050493          	mv	s1,a0
   12a2c:	00112623          	sw	ra,12(sp)
   12a30:	914ff0ef          	jal	ra,11b44 <__malloc_lock>
   12a34:	ffc42583          	lw	a1,-4(s0)
   12a38:	ff840713          	addi	a4,s0,-8
   12a3c:	c2818513          	addi	a0,gp,-984 # 14a70 <__malloc_av_>
   12a40:	ffe5f793          	andi	a5,a1,-2
   12a44:	00f70633          	add	a2,a4,a5
   12a48:	00462683          	lw	a3,4(a2)
   12a4c:	00852803          	lw	a6,8(a0)
   12a50:	ffc6f693          	andi	a3,a3,-4
   12a54:	18c80e63          	beq	a6,a2,12bf0 <_free_r+0x1dc>
   12a58:	00d62223          	sw	a3,4(a2)
   12a5c:	0015f593          	andi	a1,a1,1
   12a60:	00d60833          	add	a6,a2,a3
   12a64:	0a059063          	bnez	a1,12b04 <_free_r+0xf0>
   12a68:	ff842303          	lw	t1,-8(s0)
   12a6c:	00482583          	lw	a1,4(a6)
   12a70:	c3018893          	addi	a7,gp,-976 # 14a78 <__malloc_av_+0x8>
   12a74:	40670733          	sub	a4,a4,t1
   12a78:	00872803          	lw	a6,8(a4)
   12a7c:	006787b3          	add	a5,a5,t1
   12a80:	0015f593          	andi	a1,a1,1
   12a84:	15180063          	beq	a6,a7,12bc4 <_free_r+0x1b0>
   12a88:	00c72303          	lw	t1,12(a4)
   12a8c:	00682623          	sw	t1,12(a6)
   12a90:	01032423          	sw	a6,8(t1)
   12a94:	1c058a63          	beqz	a1,12c68 <_free_r+0x254>
   12a98:	0017e693          	ori	a3,a5,1
   12a9c:	00d72223          	sw	a3,4(a4)
   12aa0:	00f62023          	sw	a5,0(a2)
   12aa4:	1ff00693          	li	a3,511
   12aa8:	0af6e863          	bltu	a3,a5,12b58 <_free_r+0x144>
   12aac:	0037d793          	srli	a5,a5,0x3
   12ab0:	00178693          	addi	a3,a5,1
   12ab4:	00369693          	slli	a3,a3,0x3
   12ab8:	00452583          	lw	a1,4(a0)
   12abc:	00d50533          	add	a0,a0,a3
   12ac0:	00052603          	lw	a2,0(a0)
   12ac4:	4027d693          	srai	a3,a5,0x2
   12ac8:	00100793          	li	a5,1
   12acc:	00d797b3          	sll	a5,a5,a3
   12ad0:	00b7e7b3          	or	a5,a5,a1
   12ad4:	ff850693          	addi	a3,a0,-8
   12ad8:	00d72623          	sw	a3,12(a4)
   12adc:	00c72423          	sw	a2,8(a4)
   12ae0:	c2f1a623          	sw	a5,-980(gp) # 14a74 <__malloc_av_+0x4>
   12ae4:	00e52023          	sw	a4,0(a0)
   12ae8:	00e62623          	sw	a4,12(a2)
   12aec:	00812403          	lw	s0,8(sp)
   12af0:	00c12083          	lw	ra,12(sp)
   12af4:	00048513          	mv	a0,s1
   12af8:	00412483          	lw	s1,4(sp)
   12afc:	01010113          	addi	sp,sp,16
   12b00:	848ff06f          	j	11b48 <__malloc_unlock>
   12b04:	00482583          	lw	a1,4(a6)
   12b08:	0015f593          	andi	a1,a1,1
   12b0c:	02059c63          	bnez	a1,12b44 <_free_r+0x130>
   12b10:	00d787b3          	add	a5,a5,a3
   12b14:	c3018893          	addi	a7,gp,-976 # 14a78 <__malloc_av_+0x8>
   12b18:	00862683          	lw	a3,8(a2)
   12b1c:	0017e813          	ori	a6,a5,1
   12b20:	00f705b3          	add	a1,a4,a5
   12b24:	15168e63          	beq	a3,a7,12c80 <_free_r+0x26c>
   12b28:	00c62603          	lw	a2,12(a2)
   12b2c:	00c6a623          	sw	a2,12(a3)
   12b30:	00d62423          	sw	a3,8(a2)
   12b34:	01072223          	sw	a6,4(a4)
   12b38:	00f5a023          	sw	a5,0(a1)
   12b3c:	f69ff06f          	j	12aa4 <_free_r+0x90>
   12b40:	00008067          	ret
   12b44:	0017e693          	ori	a3,a5,1
   12b48:	fed42e23          	sw	a3,-4(s0)
   12b4c:	00f62023          	sw	a5,0(a2)
   12b50:	1ff00693          	li	a3,511
   12b54:	f4f6fce3          	bgeu	a3,a5,12aac <_free_r+0x98>
   12b58:	0097d693          	srli	a3,a5,0x9
   12b5c:	00400613          	li	a2,4
   12b60:	0ed66263          	bltu	a2,a3,12c44 <_free_r+0x230>
   12b64:	0067d693          	srli	a3,a5,0x6
   12b68:	03968593          	addi	a1,a3,57
   12b6c:	03868613          	addi	a2,a3,56
   12b70:	00359593          	slli	a1,a1,0x3
   12b74:	00b505b3          	add	a1,a0,a1
   12b78:	0005a683          	lw	a3,0(a1)
   12b7c:	ff858593          	addi	a1,a1,-8
   12b80:	10d58e63          	beq	a1,a3,12c9c <_free_r+0x288>
   12b84:	0046a603          	lw	a2,4(a3)
   12b88:	ffc67613          	andi	a2,a2,-4
   12b8c:	00c7f663          	bgeu	a5,a2,12b98 <_free_r+0x184>
   12b90:	0086a683          	lw	a3,8(a3)
   12b94:	fed598e3          	bne	a1,a3,12b84 <_free_r+0x170>
   12b98:	00c6a583          	lw	a1,12(a3)
   12b9c:	00b72623          	sw	a1,12(a4)
   12ba0:	00d72423          	sw	a3,8(a4)
   12ba4:	00812403          	lw	s0,8(sp)
   12ba8:	00e5a423          	sw	a4,8(a1)
   12bac:	00c12083          	lw	ra,12(sp)
   12bb0:	00048513          	mv	a0,s1
   12bb4:	00412483          	lw	s1,4(sp)
   12bb8:	00e6a623          	sw	a4,12(a3)
   12bbc:	01010113          	addi	sp,sp,16
   12bc0:	f89fe06f          	j	11b48 <__malloc_unlock>
   12bc4:	12059c63          	bnez	a1,12cfc <_free_r+0x2e8>
   12bc8:	00862583          	lw	a1,8(a2)
   12bcc:	00c62603          	lw	a2,12(a2)
   12bd0:	00f687b3          	add	a5,a3,a5
   12bd4:	0017e693          	ori	a3,a5,1
   12bd8:	00c5a623          	sw	a2,12(a1)
   12bdc:	00b62423          	sw	a1,8(a2)
   12be0:	00d72223          	sw	a3,4(a4)
   12be4:	00f70733          	add	a4,a4,a5
   12be8:	00f72023          	sw	a5,0(a4)
   12bec:	f01ff06f          	j	12aec <_free_r+0xd8>
   12bf0:	0015f593          	andi	a1,a1,1
   12bf4:	00d787b3          	add	a5,a5,a3
   12bf8:	02059063          	bnez	a1,12c18 <_free_r+0x204>
   12bfc:	ff842583          	lw	a1,-8(s0)
   12c00:	40b70733          	sub	a4,a4,a1
   12c04:	00c72683          	lw	a3,12(a4)
   12c08:	00872603          	lw	a2,8(a4)
   12c0c:	00b787b3          	add	a5,a5,a1
   12c10:	00d62623          	sw	a3,12(a2)
   12c14:	00c6a423          	sw	a2,8(a3)
   12c18:	04018693          	addi	a3,gp,64 # 14e88 <__malloc_trim_threshold>
   12c1c:	0017e613          	ori	a2,a5,1
   12c20:	0006a683          	lw	a3,0(a3)
   12c24:	00c72223          	sw	a2,4(a4)
   12c28:	c2e1a823          	sw	a4,-976(gp) # 14a78 <__malloc_av_+0x8>
   12c2c:	ecd7e0e3          	bltu	a5,a3,12aec <_free_r+0xd8>
   12c30:	04c18793          	addi	a5,gp,76 # 14e94 <__malloc_top_pad>
   12c34:	0007a583          	lw	a1,0(a5)
   12c38:	00048513          	mv	a0,s1
   12c3c:	cb1ff0ef          	jal	ra,128ec <_malloc_trim_r>
   12c40:	eadff06f          	j	12aec <_free_r+0xd8>
   12c44:	01400613          	li	a2,20
   12c48:	02d67463          	bgeu	a2,a3,12c70 <_free_r+0x25c>
   12c4c:	05400613          	li	a2,84
   12c50:	06d66463          	bltu	a2,a3,12cb8 <_free_r+0x2a4>
   12c54:	00c7d693          	srli	a3,a5,0xc
   12c58:	06f68593          	addi	a1,a3,111
   12c5c:	06e68613          	addi	a2,a3,110
   12c60:	00359593          	slli	a1,a1,0x3
   12c64:	f11ff06f          	j	12b74 <_free_r+0x160>
   12c68:	00d787b3          	add	a5,a5,a3
   12c6c:	eadff06f          	j	12b18 <_free_r+0x104>
   12c70:	05c68593          	addi	a1,a3,92
   12c74:	05b68613          	addi	a2,a3,91
   12c78:	00359593          	slli	a1,a1,0x3
   12c7c:	ef9ff06f          	j	12b74 <_free_r+0x160>
   12c80:	c2e1ae23          	sw	a4,-964(gp) # 14a84 <__malloc_av_+0x14>
   12c84:	c2e1ac23          	sw	a4,-968(gp) # 14a80 <__malloc_av_+0x10>
   12c88:	01172623          	sw	a7,12(a4)
   12c8c:	01172423          	sw	a7,8(a4)
   12c90:	01072223          	sw	a6,4(a4)
   12c94:	00f5a023          	sw	a5,0(a1)
   12c98:	e55ff06f          	j	12aec <_free_r+0xd8>
   12c9c:	00452503          	lw	a0,4(a0)
   12ca0:	00100793          	li	a5,1
   12ca4:	40265613          	srai	a2,a2,0x2
   12ca8:	00c79633          	sll	a2,a5,a2
   12cac:	00a66633          	or	a2,a2,a0
   12cb0:	c2c1a623          	sw	a2,-980(gp) # 14a74 <__malloc_av_+0x4>
   12cb4:	ee9ff06f          	j	12b9c <_free_r+0x188>
   12cb8:	15400613          	li	a2,340
   12cbc:	00d66c63          	bltu	a2,a3,12cd4 <_free_r+0x2c0>
   12cc0:	00f7d693          	srli	a3,a5,0xf
   12cc4:	07868593          	addi	a1,a3,120
   12cc8:	07768613          	addi	a2,a3,119
   12ccc:	00359593          	slli	a1,a1,0x3
   12cd0:	ea5ff06f          	j	12b74 <_free_r+0x160>
   12cd4:	55400613          	li	a2,1364
   12cd8:	00d66c63          	bltu	a2,a3,12cf0 <_free_r+0x2dc>
   12cdc:	0127d693          	srli	a3,a5,0x12
   12ce0:	07d68593          	addi	a1,a3,125
   12ce4:	07c68613          	addi	a2,a3,124
   12ce8:	00359593          	slli	a1,a1,0x3
   12cec:	e89ff06f          	j	12b74 <_free_r+0x160>
   12cf0:	3f800593          	li	a1,1016
   12cf4:	07e00613          	li	a2,126
   12cf8:	e7dff06f          	j	12b74 <_free_r+0x160>
   12cfc:	0017e693          	ori	a3,a5,1
   12d00:	00d72223          	sw	a3,4(a4)
   12d04:	00f62023          	sw	a5,0(a2)
   12d08:	de5ff06f          	j	12aec <_free_r+0xd8>

00012d0c <_lseek_r>:
   12d0c:	00058793          	mv	a5,a1
   12d10:	ff010113          	addi	sp,sp,-16
   12d14:	00812423          	sw	s0,8(sp)
   12d18:	00060593          	mv	a1,a2
   12d1c:	00050413          	mv	s0,a0
   12d20:	00068613          	mv	a2,a3
   12d24:	00078513          	mv	a0,a5
   12d28:	00112623          	sw	ra,12(sp)
   12d2c:	0801ac23          	sw	zero,152(gp) # 14ee0 <errno>
   12d30:	5d8000ef          	jal	ra,13308 <_lseek>
   12d34:	fff00793          	li	a5,-1
   12d38:	00f50a63          	beq	a0,a5,12d4c <_lseek_r+0x40>
   12d3c:	00c12083          	lw	ra,12(sp)
   12d40:	00812403          	lw	s0,8(sp)
   12d44:	01010113          	addi	sp,sp,16
   12d48:	00008067          	ret
   12d4c:	09818793          	addi	a5,gp,152 # 14ee0 <errno>
   12d50:	0007a783          	lw	a5,0(a5)
   12d54:	fe0784e3          	beqz	a5,12d3c <_lseek_r+0x30>
   12d58:	00f42023          	sw	a5,0(s0)
   12d5c:	00c12083          	lw	ra,12(sp)
   12d60:	00812403          	lw	s0,8(sp)
   12d64:	01010113          	addi	sp,sp,16
   12d68:	00008067          	ret

00012d6c <__swhatbuf_r>:
   12d6c:	f9010113          	addi	sp,sp,-112
   12d70:	06812423          	sw	s0,104(sp)
   12d74:	00058413          	mv	s0,a1
   12d78:	00e59583          	lh	a1,14(a1)
   12d7c:	06912223          	sw	s1,100(sp)
   12d80:	07212023          	sw	s2,96(sp)
   12d84:	06112623          	sw	ra,108(sp)
   12d88:	00060493          	mv	s1,a2
   12d8c:	00068913          	mv	s2,a3
   12d90:	0405ca63          	bltz	a1,12de4 <__swhatbuf_r+0x78>
   12d94:	00810613          	addi	a2,sp,8
   12d98:	374000ef          	jal	ra,1310c <_fstat_r>
   12d9c:	04054463          	bltz	a0,12de4 <__swhatbuf_r+0x78>
   12da0:	00c12703          	lw	a4,12(sp)
   12da4:	0000f7b7          	lui	a5,0xf
   12da8:	06c12083          	lw	ra,108(sp)
   12dac:	00e7f7b3          	and	a5,a5,a4
   12db0:	ffffe737          	lui	a4,0xffffe
   12db4:	00e787b3          	add	a5,a5,a4
   12db8:	0017b793          	seqz	a5,a5
   12dbc:	06812403          	lw	s0,104(sp)
   12dc0:	00f92023          	sw	a5,0(s2)
   12dc4:	40000793          	li	a5,1024
   12dc8:	00f4a023          	sw	a5,0(s1)
   12dcc:	00001537          	lui	a0,0x1
   12dd0:	06412483          	lw	s1,100(sp)
   12dd4:	06012903          	lw	s2,96(sp)
   12dd8:	80050513          	addi	a0,a0,-2048 # 800 <register_fini-0xf874>
   12ddc:	07010113          	addi	sp,sp,112
   12de0:	00008067          	ret
   12de4:	00c45783          	lhu	a5,12(s0)
   12de8:	00092023          	sw	zero,0(s2)
   12dec:	0807f793          	andi	a5,a5,128
   12df0:	02078463          	beqz	a5,12e18 <__swhatbuf_r+0xac>
   12df4:	06c12083          	lw	ra,108(sp)
   12df8:	06812403          	lw	s0,104(sp)
   12dfc:	04000793          	li	a5,64
   12e00:	00f4a023          	sw	a5,0(s1)
   12e04:	06012903          	lw	s2,96(sp)
   12e08:	06412483          	lw	s1,100(sp)
   12e0c:	00000513          	li	a0,0
   12e10:	07010113          	addi	sp,sp,112
   12e14:	00008067          	ret
   12e18:	06c12083          	lw	ra,108(sp)
   12e1c:	06812403          	lw	s0,104(sp)
   12e20:	40000793          	li	a5,1024
   12e24:	00f4a023          	sw	a5,0(s1)
   12e28:	06012903          	lw	s2,96(sp)
   12e2c:	06412483          	lw	s1,100(sp)
   12e30:	00000513          	li	a0,0
   12e34:	07010113          	addi	sp,sp,112
   12e38:	00008067          	ret

00012e3c <__smakebuf_r>:
   12e3c:	00c5d703          	lhu	a4,12(a1)
   12e40:	fe010113          	addi	sp,sp,-32
   12e44:	00812c23          	sw	s0,24(sp)
   12e48:	00112e23          	sw	ra,28(sp)
   12e4c:	00912a23          	sw	s1,20(sp)
   12e50:	01212823          	sw	s2,16(sp)
   12e54:	00277713          	andi	a4,a4,2
   12e58:	00058413          	mv	s0,a1
   12e5c:	02070863          	beqz	a4,12e8c <__smakebuf_r+0x50>
   12e60:	04358713          	addi	a4,a1,67
   12e64:	00e5a023          	sw	a4,0(a1)
   12e68:	00e5a823          	sw	a4,16(a1)
   12e6c:	00100713          	li	a4,1
   12e70:	00e5aa23          	sw	a4,20(a1)
   12e74:	01c12083          	lw	ra,28(sp)
   12e78:	01812403          	lw	s0,24(sp)
   12e7c:	01412483          	lw	s1,20(sp)
   12e80:	01012903          	lw	s2,16(sp)
   12e84:	02010113          	addi	sp,sp,32
   12e88:	00008067          	ret
   12e8c:	00c10693          	addi	a3,sp,12
   12e90:	00810613          	addi	a2,sp,8
   12e94:	00050493          	mv	s1,a0
   12e98:	ed5ff0ef          	jal	ra,12d6c <__swhatbuf_r>
   12e9c:	00812583          	lw	a1,8(sp)
   12ea0:	00050913          	mv	s2,a0
   12ea4:	00048513          	mv	a0,s1
   12ea8:	9b8fe0ef          	jal	ra,11060 <_malloc_r>
   12eac:	00c41783          	lh	a5,12(s0)
   12eb0:	04050863          	beqz	a0,12f00 <__smakebuf_r+0xc4>
   12eb4:	ffffe697          	auipc	a3,0xffffe
   12eb8:	81068693          	addi	a3,a3,-2032 # 106c4 <_cleanup_r>
   12ebc:	02d4ae23          	sw	a3,60(s1)
   12ec0:	00812683          	lw	a3,8(sp)
   12ec4:	00c12703          	lw	a4,12(sp)
   12ec8:	0807e793          	ori	a5,a5,128
   12ecc:	00f41623          	sh	a5,12(s0)
   12ed0:	00a42023          	sw	a0,0(s0)
   12ed4:	00a42823          	sw	a0,16(s0)
   12ed8:	00d42a23          	sw	a3,20(s0)
   12edc:	04071863          	bnez	a4,12f2c <__smakebuf_r+0xf0>
   12ee0:	0127e7b3          	or	a5,a5,s2
   12ee4:	00f41623          	sh	a5,12(s0)
   12ee8:	01c12083          	lw	ra,28(sp)
   12eec:	01812403          	lw	s0,24(sp)
   12ef0:	01412483          	lw	s1,20(sp)
   12ef4:	01012903          	lw	s2,16(sp)
   12ef8:	02010113          	addi	sp,sp,32
   12efc:	00008067          	ret
   12f00:	2007f713          	andi	a4,a5,512
   12f04:	f60718e3          	bnez	a4,12e74 <__smakebuf_r+0x38>
   12f08:	ffc7f793          	andi	a5,a5,-4
   12f0c:	0027e793          	ori	a5,a5,2
   12f10:	04340713          	addi	a4,s0,67
   12f14:	00f41623          	sh	a5,12(s0)
   12f18:	00100793          	li	a5,1
   12f1c:	00e42023          	sw	a4,0(s0)
   12f20:	00e42823          	sw	a4,16(s0)
   12f24:	00f42a23          	sw	a5,20(s0)
   12f28:	f4dff06f          	j	12e74 <__smakebuf_r+0x38>
   12f2c:	00e41583          	lh	a1,14(s0)
   12f30:	00048513          	mv	a0,s1
   12f34:	234000ef          	jal	ra,13168 <_isatty_r>
   12f38:	00051663          	bnez	a0,12f44 <__smakebuf_r+0x108>
   12f3c:	00c41783          	lh	a5,12(s0)
   12f40:	fa1ff06f          	j	12ee0 <__smakebuf_r+0xa4>
   12f44:	00c45783          	lhu	a5,12(s0)
   12f48:	ffc7f793          	andi	a5,a5,-4
   12f4c:	0017e793          	ori	a5,a5,1
   12f50:	01079793          	slli	a5,a5,0x10
   12f54:	4107d793          	srai	a5,a5,0x10
   12f58:	f89ff06f          	j	12ee0 <__smakebuf_r+0xa4>

00012f5c <_read_r>:
   12f5c:	00058793          	mv	a5,a1
   12f60:	ff010113          	addi	sp,sp,-16
   12f64:	00812423          	sw	s0,8(sp)
   12f68:	00060593          	mv	a1,a2
   12f6c:	00050413          	mv	s0,a0
   12f70:	00068613          	mv	a2,a3
   12f74:	00078513          	mv	a0,a5
   12f78:	00112623          	sw	ra,12(sp)
   12f7c:	0801ac23          	sw	zero,152(gp) # 14ee0 <errno>
   12f80:	3d8000ef          	jal	ra,13358 <_read>
   12f84:	fff00793          	li	a5,-1
   12f88:	00f50a63          	beq	a0,a5,12f9c <_read_r+0x40>
   12f8c:	00c12083          	lw	ra,12(sp)
   12f90:	00812403          	lw	s0,8(sp)
   12f94:	01010113          	addi	sp,sp,16
   12f98:	00008067          	ret
   12f9c:	09818793          	addi	a5,gp,152 # 14ee0 <errno>
   12fa0:	0007a783          	lw	a5,0(a5) # f000 <register_fini-0x1074>
   12fa4:	fe0784e3          	beqz	a5,12f8c <_read_r+0x30>
   12fa8:	00f42023          	sw	a5,0(s0)
   12fac:	00c12083          	lw	ra,12(sp)
   12fb0:	00812403          	lw	s0,8(sp)
   12fb4:	01010113          	addi	sp,sp,16
   12fb8:	00008067          	ret

00012fbc <cleanup_glue>:
   12fbc:	ff010113          	addi	sp,sp,-16
   12fc0:	00812423          	sw	s0,8(sp)
   12fc4:	00058413          	mv	s0,a1
   12fc8:	0005a583          	lw	a1,0(a1)
   12fcc:	00912223          	sw	s1,4(sp)
   12fd0:	00112623          	sw	ra,12(sp)
   12fd4:	00050493          	mv	s1,a0
   12fd8:	00058463          	beqz	a1,12fe0 <cleanup_glue+0x24>
   12fdc:	fe1ff0ef          	jal	ra,12fbc <cleanup_glue>
   12fe0:	00040593          	mv	a1,s0
   12fe4:	00812403          	lw	s0,8(sp)
   12fe8:	00c12083          	lw	ra,12(sp)
   12fec:	00048513          	mv	a0,s1
   12ff0:	00412483          	lw	s1,4(sp)
   12ff4:	01010113          	addi	sp,sp,16
   12ff8:	a1dff06f          	j	12a14 <_free_r>

00012ffc <_reclaim_reent>:
   12ffc:	03818793          	addi	a5,gp,56 # 14e80 <_impure_ptr>
   13000:	0007a783          	lw	a5,0(a5)
   13004:	10a78263          	beq	a5,a0,13108 <_reclaim_reent+0x10c>
   13008:	04c52703          	lw	a4,76(a0)
   1300c:	fe010113          	addi	sp,sp,-32
   13010:	00912a23          	sw	s1,20(sp)
   13014:	00112e23          	sw	ra,28(sp)
   13018:	00812c23          	sw	s0,24(sp)
   1301c:	01212823          	sw	s2,16(sp)
   13020:	01312623          	sw	s3,12(sp)
   13024:	00050493          	mv	s1,a0
   13028:	04070263          	beqz	a4,1306c <_reclaim_reent+0x70>
   1302c:	00000913          	li	s2,0
   13030:	08000993          	li	s3,128
   13034:	012707b3          	add	a5,a4,s2
   13038:	0007a583          	lw	a1,0(a5)
   1303c:	00058e63          	beqz	a1,13058 <_reclaim_reent+0x5c>
   13040:	0005a403          	lw	s0,0(a1)
   13044:	00048513          	mv	a0,s1
   13048:	9cdff0ef          	jal	ra,12a14 <_free_r>
   1304c:	00040593          	mv	a1,s0
   13050:	fe0418e3          	bnez	s0,13040 <_reclaim_reent+0x44>
   13054:	04c4a703          	lw	a4,76(s1)
   13058:	00490913          	addi	s2,s2,4
   1305c:	fd391ce3          	bne	s2,s3,13034 <_reclaim_reent+0x38>
   13060:	00070593          	mv	a1,a4
   13064:	00048513          	mv	a0,s1
   13068:	9adff0ef          	jal	ra,12a14 <_free_r>
   1306c:	0404a583          	lw	a1,64(s1)
   13070:	00058663          	beqz	a1,1307c <_reclaim_reent+0x80>
   13074:	00048513          	mv	a0,s1
   13078:	99dff0ef          	jal	ra,12a14 <_free_r>
   1307c:	1484a583          	lw	a1,328(s1)
   13080:	02058063          	beqz	a1,130a0 <_reclaim_reent+0xa4>
   13084:	14c48913          	addi	s2,s1,332
   13088:	01258c63          	beq	a1,s2,130a0 <_reclaim_reent+0xa4>
   1308c:	0005a403          	lw	s0,0(a1)
   13090:	00048513          	mv	a0,s1
   13094:	981ff0ef          	jal	ra,12a14 <_free_r>
   13098:	00040593          	mv	a1,s0
   1309c:	fe8918e3          	bne	s2,s0,1308c <_reclaim_reent+0x90>
   130a0:	0544a583          	lw	a1,84(s1)
   130a4:	00058663          	beqz	a1,130b0 <_reclaim_reent+0xb4>
   130a8:	00048513          	mv	a0,s1
   130ac:	969ff0ef          	jal	ra,12a14 <_free_r>
   130b0:	0384a783          	lw	a5,56(s1)
   130b4:	02078c63          	beqz	a5,130ec <_reclaim_reent+0xf0>
   130b8:	03c4a783          	lw	a5,60(s1)
   130bc:	00048513          	mv	a0,s1
   130c0:	000780e7          	jalr	a5
   130c4:	2e04a583          	lw	a1,736(s1)
   130c8:	02058263          	beqz	a1,130ec <_reclaim_reent+0xf0>
   130cc:	01812403          	lw	s0,24(sp)
   130d0:	01c12083          	lw	ra,28(sp)
   130d4:	01012903          	lw	s2,16(sp)
   130d8:	00c12983          	lw	s3,12(sp)
   130dc:	00048513          	mv	a0,s1
   130e0:	01412483          	lw	s1,20(sp)
   130e4:	02010113          	addi	sp,sp,32
   130e8:	ed5ff06f          	j	12fbc <cleanup_glue>
   130ec:	01c12083          	lw	ra,28(sp)
   130f0:	01812403          	lw	s0,24(sp)
   130f4:	01412483          	lw	s1,20(sp)
   130f8:	01012903          	lw	s2,16(sp)
   130fc:	00c12983          	lw	s3,12(sp)
   13100:	02010113          	addi	sp,sp,32
   13104:	00008067          	ret
   13108:	00008067          	ret

0001310c <_fstat_r>:
   1310c:	00058793          	mv	a5,a1
   13110:	ff010113          	addi	sp,sp,-16
   13114:	00812423          	sw	s0,8(sp)
   13118:	00060593          	mv	a1,a2
   1311c:	00050413          	mv	s0,a0
   13120:	00078513          	mv	a0,a5
   13124:	00112623          	sw	ra,12(sp)
   13128:	0801ac23          	sw	zero,152(gp) # 14ee0 <errno>
   1312c:	12c000ef          	jal	ra,13258 <_fstat>
   13130:	fff00793          	li	a5,-1
   13134:	00f50a63          	beq	a0,a5,13148 <_fstat_r+0x3c>
   13138:	00c12083          	lw	ra,12(sp)
   1313c:	00812403          	lw	s0,8(sp)
   13140:	01010113          	addi	sp,sp,16
   13144:	00008067          	ret
   13148:	09818793          	addi	a5,gp,152 # 14ee0 <errno>
   1314c:	0007a783          	lw	a5,0(a5)
   13150:	fe0784e3          	beqz	a5,13138 <_fstat_r+0x2c>
   13154:	00f42023          	sw	a5,0(s0)
   13158:	00c12083          	lw	ra,12(sp)
   1315c:	00812403          	lw	s0,8(sp)
   13160:	01010113          	addi	sp,sp,16
   13164:	00008067          	ret

00013168 <_isatty_r>:
   13168:	ff010113          	addi	sp,sp,-16
   1316c:	00812423          	sw	s0,8(sp)
   13170:	00050413          	mv	s0,a0
   13174:	00058513          	mv	a0,a1
   13178:	0801ac23          	sw	zero,152(gp) # 14ee0 <errno>
   1317c:	00112623          	sw	ra,12(sp)
   13180:	148000ef          	jal	ra,132c8 <_isatty>
   13184:	fff00793          	li	a5,-1
   13188:	00f50a63          	beq	a0,a5,1319c <_isatty_r+0x34>
   1318c:	00c12083          	lw	ra,12(sp)
   13190:	00812403          	lw	s0,8(sp)
   13194:	01010113          	addi	sp,sp,16
   13198:	00008067          	ret
   1319c:	09818793          	addi	a5,gp,152 # 14ee0 <errno>
   131a0:	0007a783          	lw	a5,0(a5)
   131a4:	fe0784e3          	beqz	a5,1318c <_isatty_r+0x24>
   131a8:	00f42023          	sw	a5,0(s0)
   131ac:	00c12083          	lw	ra,12(sp)
   131b0:	00812403          	lw	s0,8(sp)
   131b4:	01010113          	addi	sp,sp,16
   131b8:	00008067          	ret

000131bc <_close>:
   131bc:	ff010113          	addi	sp,sp,-16
   131c0:	00112623          	sw	ra,12(sp)
   131c4:	00812423          	sw	s0,8(sp)
   131c8:	00000593          	li	a1,0
   131cc:	00000613          	li	a2,0
   131d0:	00000693          	li	a3,0
   131d4:	00000713          	li	a4,0
   131d8:	00000793          	li	a5,0
   131dc:	03900893          	li	a7,57
   131e0:	00000073          	ecall
   131e4:	00050413          	mv	s0,a0
   131e8:	00054c63          	bltz	a0,13200 <_close+0x44>
   131ec:	00040513          	mv	a0,s0
   131f0:	00c12083          	lw	ra,12(sp)
   131f4:	00812403          	lw	s0,8(sp)
   131f8:	01010113          	addi	sp,sp,16
   131fc:	00008067          	ret
   13200:	40800433          	neg	s0,s0
   13204:	338000ef          	jal	ra,1353c <__errno>
   13208:	00852023          	sw	s0,0(a0)
   1320c:	fff00413          	li	s0,-1
   13210:	fddff06f          	j	131ec <_close+0x30>

00013214 <_exit>:
   13214:	00000593          	li	a1,0
   13218:	00000613          	li	a2,0
   1321c:	00000693          	li	a3,0
   13220:	00000713          	li	a4,0
   13224:	00000793          	li	a5,0
   13228:	05d00893          	li	a7,93
   1322c:	00000073          	ecall
   13230:	00054463          	bltz	a0,13238 <_exit+0x24>
   13234:	0000006f          	j	13234 <_exit+0x20>
   13238:	ff010113          	addi	sp,sp,-16
   1323c:	00812423          	sw	s0,8(sp)
   13240:	00050413          	mv	s0,a0
   13244:	00112623          	sw	ra,12(sp)
   13248:	40800433          	neg	s0,s0
   1324c:	2f0000ef          	jal	ra,1353c <__errno>
   13250:	00852023          	sw	s0,0(a0)
   13254:	0000006f          	j	13254 <_exit+0x40>

00013258 <_fstat>:
   13258:	f7010113          	addi	sp,sp,-144
   1325c:	08912223          	sw	s1,132(sp)
   13260:	08112623          	sw	ra,140(sp)
   13264:	00058493          	mv	s1,a1
   13268:	08812423          	sw	s0,136(sp)
   1326c:	00000613          	li	a2,0
   13270:	00010593          	mv	a1,sp
   13274:	00000693          	li	a3,0
   13278:	00000713          	li	a4,0
   1327c:	00000793          	li	a5,0
   13280:	05000893          	li	a7,80
   13284:	00000073          	ecall
   13288:	00050413          	mv	s0,a0
   1328c:	02054463          	bltz	a0,132b4 <_fstat+0x5c>
   13290:	00048513          	mv	a0,s1
   13294:	00010593          	mv	a1,sp
   13298:	200000ef          	jal	ra,13498 <_conv_stat>
   1329c:	00040513          	mv	a0,s0
   132a0:	08c12083          	lw	ra,140(sp)
   132a4:	08812403          	lw	s0,136(sp)
   132a8:	08412483          	lw	s1,132(sp)
   132ac:	09010113          	addi	sp,sp,144
   132b0:	00008067          	ret
   132b4:	40800433          	neg	s0,s0
   132b8:	284000ef          	jal	ra,1353c <__errno>
   132bc:	00852023          	sw	s0,0(a0)
   132c0:	fff00413          	li	s0,-1
   132c4:	fcdff06f          	j	13290 <_fstat+0x38>

000132c8 <_isatty>:
   132c8:	f9010113          	addi	sp,sp,-112
   132cc:	00810593          	addi	a1,sp,8
   132d0:	06112623          	sw	ra,108(sp)
   132d4:	f85ff0ef          	jal	ra,13258 <_fstat>
   132d8:	fff00793          	li	a5,-1
   132dc:	00f50e63          	beq	a0,a5,132f8 <_isatty+0x30>
   132e0:	00c12503          	lw	a0,12(sp)
   132e4:	06c12083          	lw	ra,108(sp)
   132e8:	00d55513          	srli	a0,a0,0xd
   132ec:	00157513          	andi	a0,a0,1
   132f0:	07010113          	addi	sp,sp,112
   132f4:	00008067          	ret
   132f8:	06c12083          	lw	ra,108(sp)
   132fc:	00000513          	li	a0,0
   13300:	07010113          	addi	sp,sp,112
   13304:	00008067          	ret

00013308 <_lseek>:
   13308:	ff010113          	addi	sp,sp,-16
   1330c:	00112623          	sw	ra,12(sp)
   13310:	00812423          	sw	s0,8(sp)
   13314:	00000693          	li	a3,0
   13318:	00000713          	li	a4,0
   1331c:	00000793          	li	a5,0
   13320:	03e00893          	li	a7,62
   13324:	00000073          	ecall
   13328:	00050413          	mv	s0,a0
   1332c:	00054c63          	bltz	a0,13344 <_lseek+0x3c>
   13330:	00040513          	mv	a0,s0
   13334:	00c12083          	lw	ra,12(sp)
   13338:	00812403          	lw	s0,8(sp)
   1333c:	01010113          	addi	sp,sp,16
   13340:	00008067          	ret
   13344:	40800433          	neg	s0,s0
   13348:	1f4000ef          	jal	ra,1353c <__errno>
   1334c:	00852023          	sw	s0,0(a0)
   13350:	fff00413          	li	s0,-1
   13354:	fddff06f          	j	13330 <_lseek+0x28>

00013358 <_read>:
   13358:	ff010113          	addi	sp,sp,-16
   1335c:	00112623          	sw	ra,12(sp)
   13360:	00812423          	sw	s0,8(sp)
   13364:	00000693          	li	a3,0
   13368:	00000713          	li	a4,0
   1336c:	00000793          	li	a5,0
   13370:	03f00893          	li	a7,63
   13374:	00000073          	ecall
   13378:	00050413          	mv	s0,a0
   1337c:	00054c63          	bltz	a0,13394 <_read+0x3c>
   13380:	00040513          	mv	a0,s0
   13384:	00c12083          	lw	ra,12(sp)
   13388:	00812403          	lw	s0,8(sp)
   1338c:	01010113          	addi	sp,sp,16
   13390:	00008067          	ret
   13394:	40800433          	neg	s0,s0
   13398:	1a4000ef          	jal	ra,1353c <__errno>
   1339c:	00852023          	sw	s0,0(a0)
   133a0:	fff00413          	li	s0,-1
   133a4:	fddff06f          	j	13380 <_read+0x28>

000133a8 <_sbrk>:
   133a8:	05018313          	addi	t1,gp,80 # 14e98 <heap_end.1862>
   133ac:	00032783          	lw	a5,0(t1)
   133b0:	ff010113          	addi	sp,sp,-16
   133b4:	00112623          	sw	ra,12(sp)
   133b8:	00050813          	mv	a6,a0
   133bc:	02079863          	bnez	a5,133ec <_sbrk+0x44>
   133c0:	00000513          	li	a0,0
   133c4:	00000593          	li	a1,0
   133c8:	00000613          	li	a2,0
   133cc:	00000693          	li	a3,0
   133d0:	00000713          	li	a4,0
   133d4:	0d600893          	li	a7,214
   133d8:	00000073          	ecall
   133dc:	fff00793          	li	a5,-1
   133e0:	04f50663          	beq	a0,a5,1342c <_sbrk+0x84>
   133e4:	00050793          	mv	a5,a0
   133e8:	04a1a823          	sw	a0,80(gp) # 14e98 <heap_end.1862>
   133ec:	00f80533          	add	a0,a6,a5
   133f0:	00000593          	li	a1,0
   133f4:	00000613          	li	a2,0
   133f8:	00000693          	li	a3,0
   133fc:	00000713          	li	a4,0
   13400:	00000793          	li	a5,0
   13404:	0d600893          	li	a7,214
   13408:	00000073          	ecall
   1340c:	00032783          	lw	a5,0(t1)
   13410:	00f80833          	add	a6,a6,a5
   13414:	01051c63          	bne	a0,a6,1342c <_sbrk+0x84>
   13418:	00c12083          	lw	ra,12(sp)
   1341c:	04a1a823          	sw	a0,80(gp) # 14e98 <heap_end.1862>
   13420:	00078513          	mv	a0,a5
   13424:	01010113          	addi	sp,sp,16
   13428:	00008067          	ret
   1342c:	110000ef          	jal	ra,1353c <__errno>
   13430:	00c12083          	lw	ra,12(sp)
   13434:	00c00793          	li	a5,12
   13438:	00f52023          	sw	a5,0(a0)
   1343c:	fff00513          	li	a0,-1
   13440:	01010113          	addi	sp,sp,16
   13444:	00008067          	ret

00013448 <_write>:
   13448:	ff010113          	addi	sp,sp,-16
   1344c:	00112623          	sw	ra,12(sp)
   13450:	00812423          	sw	s0,8(sp)
   13454:	00000693          	li	a3,0
   13458:	00000713          	li	a4,0
   1345c:	00000793          	li	a5,0
   13460:	04000893          	li	a7,64
   13464:	00000073          	ecall
   13468:	00050413          	mv	s0,a0
   1346c:	00054c63          	bltz	a0,13484 <_write+0x3c>
   13470:	00040513          	mv	a0,s0
   13474:	00c12083          	lw	ra,12(sp)
   13478:	00812403          	lw	s0,8(sp)
   1347c:	01010113          	addi	sp,sp,16
   13480:	00008067          	ret
   13484:	40800433          	neg	s0,s0
   13488:	0b4000ef          	jal	ra,1353c <__errno>
   1348c:	00852023          	sw	s0,0(a0)
   13490:	fff00413          	li	s0,-1
   13494:	fddff06f          	j	13470 <_write+0x28>

00013498 <_conv_stat>:
   13498:	ff010113          	addi	sp,sp,-16
   1349c:	0145a383          	lw	t2,20(a1)
   134a0:	0185a283          	lw	t0,24(a1)
   134a4:	01c5af83          	lw	t6,28(a1)
   134a8:	0205af03          	lw	t5,32(a1)
   134ac:	0305ae83          	lw	t4,48(a1)
   134b0:	0405ae03          	lw	t3,64(a1)
   134b4:	0385a303          	lw	t1,56(a1)
   134b8:	0485a803          	lw	a6,72(a1)
   134bc:	04c5a883          	lw	a7,76(a1)
   134c0:	0585a603          	lw	a2,88(a1)
   134c4:	00812623          	sw	s0,12(sp)
   134c8:	00912423          	sw	s1,8(sp)
   134cc:	0105a403          	lw	s0,16(a1)
   134d0:	0085a483          	lw	s1,8(a1)
   134d4:	01212223          	sw	s2,4(sp)
   134d8:	0005a903          	lw	s2,0(a1)
   134dc:	05c5a683          	lw	a3,92(a1)
   134e0:	0685a703          	lw	a4,104(a1)
   134e4:	06c5a783          	lw	a5,108(a1)
   134e8:	01251023          	sh	s2,0(a0)
   134ec:	00951123          	sh	s1,2(a0)
   134f0:	00852223          	sw	s0,4(a0)
   134f4:	00751423          	sh	t2,8(a0)
   134f8:	00551523          	sh	t0,10(a0)
   134fc:	01f51623          	sh	t6,12(a0)
   13500:	01e51723          	sh	t5,14(a0)
   13504:	01d52823          	sw	t4,16(a0)
   13508:	05c52423          	sw	t3,72(a0)
   1350c:	04652223          	sw	t1,68(a0)
   13510:	01052c23          	sw	a6,24(a0)
   13514:	01152e23          	sw	a7,28(a0)
   13518:	02c52423          	sw	a2,40(a0)
   1351c:	02d52623          	sw	a3,44(a0)
   13520:	00c12403          	lw	s0,12(sp)
   13524:	02e52c23          	sw	a4,56(a0)
   13528:	02f52e23          	sw	a5,60(a0)
   1352c:	00812483          	lw	s1,8(sp)
   13530:	00412903          	lw	s2,4(sp)
   13534:	01010113          	addi	sp,sp,16
   13538:	00008067          	ret

0001353c <__errno>:
   1353c:	03818793          	addi	a5,gp,56 # 14e80 <_impure_ptr>
   13540:	0007a503          	lw	a0,0(a5)
   13544:	00008067          	ret

00013548 <__mulsi3>:
   13548:	00050613          	mv	a2,a0
   1354c:	00000513          	li	a0,0
   13550:	0015f693          	andi	a3,a1,1
   13554:	00068463          	beqz	a3,1355c <__mulsi3+0x14>
   13558:	00c50533          	add	a0,a0,a2
   1355c:	0015d593          	srli	a1,a1,0x1
   13560:	00161613          	slli	a2,a2,0x1
   13564:	fe0596e3          	bnez	a1,13550 <__mulsi3+0x8>
   13568:	00008067          	ret

0001356c <__divsi3>:
   1356c:	06054063          	bltz	a0,135cc <__umodsi3+0x10>
   13570:	0605c663          	bltz	a1,135dc <__umodsi3+0x20>

00013574 <__udivsi3>:
   13574:	00058613          	mv	a2,a1
   13578:	00050593          	mv	a1,a0
   1357c:	fff00513          	li	a0,-1
   13580:	02060c63          	beqz	a2,135b8 <__udivsi3+0x44>
   13584:	00100693          	li	a3,1
   13588:	00b67a63          	bgeu	a2,a1,1359c <__udivsi3+0x28>
   1358c:	00c05863          	blez	a2,1359c <__udivsi3+0x28>
   13590:	00161613          	slli	a2,a2,0x1
   13594:	00169693          	slli	a3,a3,0x1
   13598:	feb66ae3          	bltu	a2,a1,1358c <__udivsi3+0x18>
   1359c:	00000513          	li	a0,0
   135a0:	00c5e663          	bltu	a1,a2,135ac <__udivsi3+0x38>
   135a4:	40c585b3          	sub	a1,a1,a2
   135a8:	00d56533          	or	a0,a0,a3
   135ac:	0016d693          	srli	a3,a3,0x1
   135b0:	00165613          	srli	a2,a2,0x1
   135b4:	fe0696e3          	bnez	a3,135a0 <__udivsi3+0x2c>
   135b8:	00008067          	ret

000135bc <__umodsi3>:
   135bc:	00008293          	mv	t0,ra
   135c0:	fb5ff0ef          	jal	ra,13574 <__udivsi3>
   135c4:	00058513          	mv	a0,a1
   135c8:	00028067          	jr	t0 # 10370 <memset+0xb4>
   135cc:	40a00533          	neg	a0,a0
   135d0:	0005d863          	bgez	a1,135e0 <__umodsi3+0x24>
   135d4:	40b005b3          	neg	a1,a1
   135d8:	f9dff06f          	j	13574 <__udivsi3>
   135dc:	40b005b3          	neg	a1,a1
   135e0:	00008293          	mv	t0,ra
   135e4:	f91ff0ef          	jal	ra,13574 <__udivsi3>
   135e8:	40a00533          	neg	a0,a0
   135ec:	00028067          	jr	t0

000135f0 <__modsi3>:
   135f0:	00008293          	mv	t0,ra
   135f4:	0005ca63          	bltz	a1,13608 <__modsi3+0x18>
   135f8:	00054c63          	bltz	a0,13610 <__modsi3+0x20>
   135fc:	f79ff0ef          	jal	ra,13574 <__udivsi3>
   13600:	00058513          	mv	a0,a1
   13604:	00028067          	jr	t0
   13608:	40b005b3          	neg	a1,a1
   1360c:	fe0558e3          	bgez	a0,135fc <__modsi3+0xc>
   13610:	40a00533          	neg	a0,a0
   13614:	f61ff0ef          	jal	ra,13574 <__udivsi3>
   13618:	40b00533          	neg	a0,a1
   1361c:	00028067          	jr	t0
