
../custom_tests/rsort.elf:     file format elf32-littleriscv


Disassembly of section .text:

00010074 <register_fini>:
   10074:	ffff0797          	auipc	a5,0xffff0
   10078:	f8c78793          	addi	a5,a5,-116 # 0 <register_fini-0x10074>
   1007c:	00078863          	beqz	a5,1008c <register_fini+0x18>
   10080:	00001517          	auipc	a0,0x1
   10084:	8a850513          	addi	a0,a0,-1880 # 10928 <__libc_fini_array>
   10088:	0550006f          	j	108dc <atexit>
   1008c:	00008067          	ret

00010090 <_start>:
   10090:	00006197          	auipc	gp,0x6
   10094:	ba818193          	addi	gp,gp,-1112 # 15c38 <__global_pointer$>
   10098:	80c18513          	addi	a0,gp,-2036 # 15444 <completed.5434>
   1009c:	00007617          	auipc	a2,0x7
   100a0:	3c460613          	addi	a2,a2,964 # 17460 <__BSS_END__>
   100a4:	40a60633          	sub	a2,a2,a0
   100a8:	00000593          	li	a1,0
   100ac:	28d000ef          	jal	ra,10b38 <memset>
   100b0:	00001517          	auipc	a0,0x1
   100b4:	87850513          	addi	a0,a0,-1928 # 10928 <__libc_fini_array>
   100b8:	025000ef          	jal	ra,108dc <atexit>
   100bc:	0cd000ef          	jal	ra,10988 <__libc_init_array>
   100c0:	00012503          	lw	a0,0(sp)
   100c4:	00410593          	addi	a1,sp,4
   100c8:	00000613          	li	a2,0
   100cc:	7a8000ef          	jal	ra,10874 <main>
   100d0:	0210006f          	j	108f0 <exit>

000100d4 <__do_global_dtors_aux>:
   100d4:	80c1c783          	lbu	a5,-2036(gp) # 15444 <completed.5434>
   100d8:	04079463          	bnez	a5,10120 <__do_global_dtors_aux+0x4c>
   100dc:	ffff0797          	auipc	a5,0xffff0
   100e0:	f2478793          	addi	a5,a5,-220 # 0 <register_fini-0x10074>
   100e4:	02078863          	beqz	a5,10114 <__do_global_dtors_aux+0x40>
   100e8:	ff010113          	addi	sp,sp,-16
   100ec:	00001517          	auipc	a0,0x1
   100f0:	f1450513          	addi	a0,a0,-236 # 11000 <__FRAME_END__>
   100f4:	00112623          	sw	ra,12(sp)
   100f8:	00000097          	auipc	ra,0x0
   100fc:	000000e7          	jalr	zero # 0 <register_fini-0x10074>
   10100:	00c12083          	lw	ra,12(sp)
   10104:	00100793          	li	a5,1
   10108:	80f18623          	sb	a5,-2036(gp) # 15444 <completed.5434>
   1010c:	01010113          	addi	sp,sp,16
   10110:	00008067          	ret
   10114:	00100793          	li	a5,1
   10118:	80f18623          	sb	a5,-2036(gp) # 15444 <completed.5434>
   1011c:	00008067          	ret
   10120:	00008067          	ret

00010124 <frame_dummy>:
   10124:	ffff0797          	auipc	a5,0xffff0
   10128:	edc78793          	addi	a5,a5,-292 # 0 <register_fini-0x10074>
   1012c:	00078e63          	beqz	a5,10148 <frame_dummy+0x24>
   10130:	00005597          	auipc	a1,0x5
   10134:	31858593          	addi	a1,a1,792 # 15448 <object.5439>
   10138:	00001517          	auipc	a0,0x1
   1013c:	ec850513          	addi	a0,a0,-312 # 11000 <__FRAME_END__>
   10140:	00000317          	auipc	t1,0x0
   10144:	00000067          	jr	zero # 0 <register_fini-0x10074>
   10148:	00008067          	ret

0001014c <verify>:
   1014c:	fc010113          	addi	sp,sp,-64
   10150:	02812e23          	sw	s0,60(sp)
   10154:	04010413          	addi	s0,sp,64
   10158:	fca42623          	sw	a0,-52(s0)
   1015c:	fcb42423          	sw	a1,-56(s0)
   10160:	fcc42223          	sw	a2,-60(s0)
   10164:	fe042623          	sw	zero,-20(s0)
   10168:	0a80006f          	j	10210 <verify+0xc4>
   1016c:	fec42783          	lw	a5,-20(s0)
   10170:	00279793          	slli	a5,a5,0x2
   10174:	fc842703          	lw	a4,-56(s0)
   10178:	00f707b3          	add	a5,a4,a5
   1017c:	0007a783          	lw	a5,0(a5)
   10180:	fef42423          	sw	a5,-24(s0)
   10184:	fec42783          	lw	a5,-20(s0)
   10188:	00178793          	addi	a5,a5,1
   1018c:	00279793          	slli	a5,a5,0x2
   10190:	fc842703          	lw	a4,-56(s0)
   10194:	00f707b3          	add	a5,a4,a5
   10198:	0007a783          	lw	a5,0(a5)
   1019c:	fef42223          	sw	a5,-28(s0)
   101a0:	fec42783          	lw	a5,-20(s0)
   101a4:	00279793          	slli	a5,a5,0x2
   101a8:	fc442703          	lw	a4,-60(s0)
   101ac:	00f707b3          	add	a5,a4,a5
   101b0:	0007a783          	lw	a5,0(a5)
   101b4:	fef42023          	sw	a5,-32(s0)
   101b8:	fec42783          	lw	a5,-20(s0)
   101bc:	00178793          	addi	a5,a5,1
   101c0:	00279793          	slli	a5,a5,0x2
   101c4:	fc442703          	lw	a4,-60(s0)
   101c8:	00f707b3          	add	a5,a4,a5
   101cc:	0007a783          	lw	a5,0(a5)
   101d0:	fcf42e23          	sw	a5,-36(s0)
   101d4:	fe842703          	lw	a4,-24(s0)
   101d8:	fe042783          	lw	a5,-32(s0)
   101dc:	00f70863          	beq	a4,a5,101ec <verify+0xa0>
   101e0:	fec42783          	lw	a5,-20(s0)
   101e4:	00178793          	addi	a5,a5,1
   101e8:	0a00006f          	j	10288 <verify+0x13c>
   101ec:	fe442703          	lw	a4,-28(s0)
   101f0:	fdc42783          	lw	a5,-36(s0)
   101f4:	00f70863          	beq	a4,a5,10204 <verify+0xb8>
   101f8:	fec42783          	lw	a5,-20(s0)
   101fc:	00278793          	addi	a5,a5,2
   10200:	0880006f          	j	10288 <verify+0x13c>
   10204:	fec42783          	lw	a5,-20(s0)
   10208:	00278793          	addi	a5,a5,2
   1020c:	fef42623          	sw	a5,-20(s0)
   10210:	fcc42783          	lw	a5,-52(s0)
   10214:	01f7d713          	srli	a4,a5,0x1f
   10218:	00f707b3          	add	a5,a4,a5
   1021c:	4017d793          	srai	a5,a5,0x1
   10220:	00179793          	slli	a5,a5,0x1
   10224:	fec42703          	lw	a4,-20(s0)
   10228:	f4f742e3          	blt	a4,a5,1016c <verify+0x20>
   1022c:	fcc42783          	lw	a5,-52(s0)
   10230:	0017f793          	andi	a5,a5,1
   10234:	04078863          	beqz	a5,10284 <verify+0x138>
   10238:	fcc42703          	lw	a4,-52(s0)
   1023c:	400007b7          	lui	a5,0x40000
   10240:	fff78793          	addi	a5,a5,-1 # 3fffffff <__BSS_END__+0x3ffe8b9f>
   10244:	00f707b3          	add	a5,a4,a5
   10248:	00279793          	slli	a5,a5,0x2
   1024c:	fc842703          	lw	a4,-56(s0)
   10250:	00f707b3          	add	a5,a4,a5
   10254:	0007a703          	lw	a4,0(a5)
   10258:	fcc42683          	lw	a3,-52(s0)
   1025c:	400007b7          	lui	a5,0x40000
   10260:	fff78793          	addi	a5,a5,-1 # 3fffffff <__BSS_END__+0x3ffe8b9f>
   10264:	00f687b3          	add	a5,a3,a5
   10268:	00279793          	slli	a5,a5,0x2
   1026c:	fc442683          	lw	a3,-60(s0)
   10270:	00f687b3          	add	a5,a3,a5
   10274:	0007a783          	lw	a5,0(a5)
   10278:	00f70663          	beq	a4,a5,10284 <verify+0x138>
   1027c:	fcc42783          	lw	a5,-52(s0)
   10280:	0080006f          	j	10288 <verify+0x13c>
   10284:	00000793          	li	a5,0
   10288:	00078513          	mv	a0,a5
   1028c:	03c12403          	lw	s0,60(sp)
   10290:	04010113          	addi	sp,sp,64
   10294:	00008067          	ret

00010298 <sort>:
   10298:	b8010113          	addi	sp,sp,-1152
   1029c:	46112e23          	sw	ra,1148(sp)
   102a0:	46812c23          	sw	s0,1144(sp)
   102a4:	48010413          	addi	s0,sp,1152
   102a8:	b8a42623          	sw	a0,-1140(s0)
   102ac:	b8b42423          	sw	a1,-1144(s0)
   102b0:	b8c42223          	sw	a2,-1148(s0)
   102b4:	fe042623          	sw	zero,-20(s0)
   102b8:	b9040793          	addi	a5,s0,-1136
   102bc:	fcf42a23          	sw	a5,-44(s0)
   102c0:	fd442783          	lw	a5,-44(s0)
   102c4:	fcf42a23          	sw	a5,-44(s0)
   102c8:	b8842783          	lw	a5,-1144(s0)
   102cc:	fef42423          	sw	a5,-24(s0)
   102d0:	b8442783          	lw	a5,-1148(s0)
   102d4:	fef42223          	sw	a5,-28(s0)
   102d8:	5580006f          	j	10830 <sort+0x598>
   102dc:	fd442783          	lw	a5,-44(s0)
   102e0:	fcf42e23          	sw	a5,-36(s0)
   102e4:	0180006f          	j	102fc <sort+0x64>
   102e8:	fdc42783          	lw	a5,-36(s0)
   102ec:	0007a023          	sw	zero,0(a5)
   102f0:	fdc42783          	lw	a5,-36(s0)
   102f4:	00478793          	addi	a5,a5,4
   102f8:	fcf42e23          	sw	a5,-36(s0)
   102fc:	fd442783          	lw	a5,-44(s0)
   10300:	40078793          	addi	a5,a5,1024
   10304:	fdc42703          	lw	a4,-36(s0)
   10308:	fef760e3          	bltu	a4,a5,102e8 <sort+0x50>
   1030c:	fe842783          	lw	a5,-24(s0)
   10310:	fef42023          	sw	a5,-32(s0)
   10314:	1500006f          	j	10464 <sort+0x1cc>
   10318:	fe042783          	lw	a5,-32(s0)
   1031c:	0007a783          	lw	a5,0(a5)
   10320:	fcf42823          	sw	a5,-48(s0)
   10324:	fe042783          	lw	a5,-32(s0)
   10328:	0047a783          	lw	a5,4(a5)
   1032c:	fcf42623          	sw	a5,-52(s0)
   10330:	fe042783          	lw	a5,-32(s0)
   10334:	0087a783          	lw	a5,8(a5)
   10338:	fcf42423          	sw	a5,-56(s0)
   1033c:	fe042783          	lw	a5,-32(s0)
   10340:	00c7a783          	lw	a5,12(a5)
   10344:	fcf42223          	sw	a5,-60(s0)
   10348:	fec42783          	lw	a5,-20(s0)
   1034c:	fd042703          	lw	a4,-48(s0)
   10350:	00f757b3          	srl	a5,a4,a5
   10354:	0ff7f793          	zext.b	a5,a5
   10358:	00279793          	slli	a5,a5,0x2
   1035c:	fd442703          	lw	a4,-44(s0)
   10360:	00f707b3          	add	a5,a4,a5
   10364:	0007a703          	lw	a4,0(a5)
   10368:	fec42783          	lw	a5,-20(s0)
   1036c:	fd042683          	lw	a3,-48(s0)
   10370:	00f6d7b3          	srl	a5,a3,a5
   10374:	0ff7f793          	zext.b	a5,a5
   10378:	00279793          	slli	a5,a5,0x2
   1037c:	fd442683          	lw	a3,-44(s0)
   10380:	00f687b3          	add	a5,a3,a5
   10384:	00170713          	addi	a4,a4,1
   10388:	00e7a023          	sw	a4,0(a5)
   1038c:	fec42783          	lw	a5,-20(s0)
   10390:	fcc42703          	lw	a4,-52(s0)
   10394:	00f757b3          	srl	a5,a4,a5
   10398:	0ff7f793          	zext.b	a5,a5
   1039c:	00279793          	slli	a5,a5,0x2
   103a0:	fd442703          	lw	a4,-44(s0)
   103a4:	00f707b3          	add	a5,a4,a5
   103a8:	0007a703          	lw	a4,0(a5)
   103ac:	fec42783          	lw	a5,-20(s0)
   103b0:	fcc42683          	lw	a3,-52(s0)
   103b4:	00f6d7b3          	srl	a5,a3,a5
   103b8:	0ff7f793          	zext.b	a5,a5
   103bc:	00279793          	slli	a5,a5,0x2
   103c0:	fd442683          	lw	a3,-44(s0)
   103c4:	00f687b3          	add	a5,a3,a5
   103c8:	00170713          	addi	a4,a4,1
   103cc:	00e7a023          	sw	a4,0(a5)
   103d0:	fec42783          	lw	a5,-20(s0)
   103d4:	fc842703          	lw	a4,-56(s0)
   103d8:	00f757b3          	srl	a5,a4,a5
   103dc:	0ff7f793          	zext.b	a5,a5
   103e0:	00279793          	slli	a5,a5,0x2
   103e4:	fd442703          	lw	a4,-44(s0)
   103e8:	00f707b3          	add	a5,a4,a5
   103ec:	0007a703          	lw	a4,0(a5)
   103f0:	fec42783          	lw	a5,-20(s0)
   103f4:	fc842683          	lw	a3,-56(s0)
   103f8:	00f6d7b3          	srl	a5,a3,a5
   103fc:	0ff7f793          	zext.b	a5,a5
   10400:	00279793          	slli	a5,a5,0x2
   10404:	fd442683          	lw	a3,-44(s0)
   10408:	00f687b3          	add	a5,a3,a5
   1040c:	00170713          	addi	a4,a4,1
   10410:	00e7a023          	sw	a4,0(a5)
   10414:	fec42783          	lw	a5,-20(s0)
   10418:	fc442703          	lw	a4,-60(s0)
   1041c:	00f757b3          	srl	a5,a4,a5
   10420:	0ff7f793          	zext.b	a5,a5
   10424:	00279793          	slli	a5,a5,0x2
   10428:	fd442703          	lw	a4,-44(s0)
   1042c:	00f707b3          	add	a5,a4,a5
   10430:	0007a703          	lw	a4,0(a5)
   10434:	fec42783          	lw	a5,-20(s0)
   10438:	fc442683          	lw	a3,-60(s0)
   1043c:	00f6d7b3          	srl	a5,a3,a5
   10440:	0ff7f793          	zext.b	a5,a5
   10444:	00279793          	slli	a5,a5,0x2
   10448:	fd442683          	lw	a3,-44(s0)
   1044c:	00f687b3          	add	a5,a3,a5
   10450:	00170713          	addi	a4,a4,1
   10454:	00e7a023          	sw	a4,0(a5)
   10458:	fe042783          	lw	a5,-32(s0)
   1045c:	01078793          	addi	a5,a5,16
   10460:	fef42023          	sw	a5,-32(s0)
   10464:	b8c42703          	lw	a4,-1140(s0)
   10468:	400007b7          	lui	a5,0x40000
   1046c:	ffd78793          	addi	a5,a5,-3 # 3ffffffd <__BSS_END__+0x3ffe8b9d>
   10470:	00f707b3          	add	a5,a4,a5
   10474:	00279793          	slli	a5,a5,0x2
   10478:	fe842703          	lw	a4,-24(s0)
   1047c:	00f707b3          	add	a5,a4,a5
   10480:	fe042703          	lw	a4,-32(s0)
   10484:	e8f76ae3          	bltu	a4,a5,10318 <sort+0x80>
   10488:	03c0006f          	j	104c4 <sort+0x22c>
   1048c:	fe042783          	lw	a5,-32(s0)
   10490:	0007a703          	lw	a4,0(a5)
   10494:	fec42783          	lw	a5,-20(s0)
   10498:	00f757b3          	srl	a5,a4,a5
   1049c:	0ff7f793          	zext.b	a5,a5
   104a0:	00279793          	slli	a5,a5,0x2
   104a4:	fd442703          	lw	a4,-44(s0)
   104a8:	00f707b3          	add	a5,a4,a5
   104ac:	0007a703          	lw	a4,0(a5)
   104b0:	00170713          	addi	a4,a4,1
   104b4:	00e7a023          	sw	a4,0(a5)
   104b8:	fe042783          	lw	a5,-32(s0)
   104bc:	00478793          	addi	a5,a5,4
   104c0:	fef42023          	sw	a5,-32(s0)
   104c4:	b8c42783          	lw	a5,-1140(s0)
   104c8:	00279793          	slli	a5,a5,0x2
   104cc:	fe842703          	lw	a4,-24(s0)
   104d0:	00f707b3          	add	a5,a4,a5
   104d4:	fe042703          	lw	a4,-32(s0)
   104d8:	faf76ae3          	bltu	a4,a5,1048c <sort+0x1f4>
   104dc:	fd442783          	lw	a5,-44(s0)
   104e0:	0007a783          	lw	a5,0(a5)
   104e4:	fcf42c23          	sw	a5,-40(s0)
   104e8:	fd442783          	lw	a5,-44(s0)
   104ec:	00478793          	addi	a5,a5,4
   104f0:	0007a683          	lw	a3,0(a5)
   104f4:	fd442783          	lw	a5,-44(s0)
   104f8:	00478793          	addi	a5,a5,4
   104fc:	fd842703          	lw	a4,-40(s0)
   10500:	00e68733          	add	a4,a3,a4
   10504:	00e7a023          	sw	a4,0(a5)
   10508:	0007a703          	lw	a4,0(a5)
   1050c:	fd842783          	lw	a5,-40(s0)
   10510:	40f707b3          	sub	a5,a4,a5
   10514:	fd842703          	lw	a4,-40(s0)
   10518:	00f707b3          	add	a5,a4,a5
   1051c:	fcf42c23          	sw	a5,-40(s0)
   10520:	fd442783          	lw	a5,-44(s0)
   10524:	00878793          	addi	a5,a5,8
   10528:	fcf42e23          	sw	a5,-36(s0)
   1052c:	07c0006f          	j	105a8 <sort+0x310>
   10530:	fdc42783          	lw	a5,-36(s0)
   10534:	0007a703          	lw	a4,0(a5)
   10538:	fd842783          	lw	a5,-40(s0)
   1053c:	00f70733          	add	a4,a4,a5
   10540:	fdc42783          	lw	a5,-36(s0)
   10544:	00e7a023          	sw	a4,0(a5)
   10548:	fdc42783          	lw	a5,-36(s0)
   1054c:	0007a703          	lw	a4,0(a5)
   10550:	fd842783          	lw	a5,-40(s0)
   10554:	40f707b3          	sub	a5,a4,a5
   10558:	fd842703          	lw	a4,-40(s0)
   1055c:	00f707b3          	add	a5,a4,a5
   10560:	fcf42c23          	sw	a5,-40(s0)
   10564:	fdc42783          	lw	a5,-36(s0)
   10568:	00478793          	addi	a5,a5,4
   1056c:	0007a683          	lw	a3,0(a5)
   10570:	fdc42783          	lw	a5,-36(s0)
   10574:	00478793          	addi	a5,a5,4
   10578:	fd842703          	lw	a4,-40(s0)
   1057c:	00e68733          	add	a4,a3,a4
   10580:	00e7a023          	sw	a4,0(a5)
   10584:	0007a703          	lw	a4,0(a5)
   10588:	fd842783          	lw	a5,-40(s0)
   1058c:	40f707b3          	sub	a5,a4,a5
   10590:	fd842703          	lw	a4,-40(s0)
   10594:	00f707b3          	add	a5,a4,a5
   10598:	fcf42c23          	sw	a5,-40(s0)
   1059c:	fdc42783          	lw	a5,-36(s0)
   105a0:	00878793          	addi	a5,a5,8
   105a4:	fcf42e23          	sw	a5,-36(s0)
   105a8:	fd442783          	lw	a5,-44(s0)
   105ac:	40078793          	addi	a5,a5,1024
   105b0:	fdc42703          	lw	a4,-36(s0)
   105b4:	f6f76ee3          	bltu	a4,a5,10530 <sort+0x298>
   105b8:	b8c42703          	lw	a4,-1140(s0)
   105bc:	400007b7          	lui	a5,0x40000
   105c0:	fff78793          	addi	a5,a5,-1 # 3fffffff <__BSS_END__+0x3ffe8b9f>
   105c4:	00f707b3          	add	a5,a4,a5
   105c8:	00279793          	slli	a5,a5,0x2
   105cc:	fe842703          	lw	a4,-24(s0)
   105d0:	00f707b3          	add	a5,a4,a5
   105d4:	fef42023          	sw	a5,-32(s0)
   105d8:	1c00006f          	j	10798 <sort+0x500>
   105dc:	fe042783          	lw	a5,-32(s0)
   105e0:	0007a783          	lw	a5,0(a5)
   105e4:	fcf42023          	sw	a5,-64(s0)
   105e8:	fe042783          	lw	a5,-32(s0)
   105ec:	ffc7a783          	lw	a5,-4(a5)
   105f0:	faf42e23          	sw	a5,-68(s0)
   105f4:	fe042783          	lw	a5,-32(s0)
   105f8:	ff87a783          	lw	a5,-8(a5)
   105fc:	faf42c23          	sw	a5,-72(s0)
   10600:	fe042783          	lw	a5,-32(s0)
   10604:	ff47a783          	lw	a5,-12(a5)
   10608:	faf42a23          	sw	a5,-76(s0)
   1060c:	fec42783          	lw	a5,-20(s0)
   10610:	fc042703          	lw	a4,-64(s0)
   10614:	00f757b3          	srl	a5,a4,a5
   10618:	0ff7f793          	zext.b	a5,a5
   1061c:	00279793          	slli	a5,a5,0x2
   10620:	fd442703          	lw	a4,-44(s0)
   10624:	00f707b3          	add	a5,a4,a5
   10628:	faf42823          	sw	a5,-80(s0)
   1062c:	fec42783          	lw	a5,-20(s0)
   10630:	fbc42703          	lw	a4,-68(s0)
   10634:	00f757b3          	srl	a5,a4,a5
   10638:	0ff7f793          	zext.b	a5,a5
   1063c:	00279793          	slli	a5,a5,0x2
   10640:	fd442703          	lw	a4,-44(s0)
   10644:	00f707b3          	add	a5,a4,a5
   10648:	faf42623          	sw	a5,-84(s0)
   1064c:	fec42783          	lw	a5,-20(s0)
   10650:	fb842703          	lw	a4,-72(s0)
   10654:	00f757b3          	srl	a5,a4,a5
   10658:	0ff7f793          	zext.b	a5,a5
   1065c:	00279793          	slli	a5,a5,0x2
   10660:	fd442703          	lw	a4,-44(s0)
   10664:	00f707b3          	add	a5,a4,a5
   10668:	faf42423          	sw	a5,-88(s0)
   1066c:	fec42783          	lw	a5,-20(s0)
   10670:	fb442703          	lw	a4,-76(s0)
   10674:	00f757b3          	srl	a5,a4,a5
   10678:	0ff7f793          	zext.b	a5,a5
   1067c:	00279793          	slli	a5,a5,0x2
   10680:	fd442703          	lw	a4,-44(s0)
   10684:	00f707b3          	add	a5,a4,a5
   10688:	faf42223          	sw	a5,-92(s0)
   1068c:	fb042783          	lw	a5,-80(s0)
   10690:	0007a783          	lw	a5,0(a5)
   10694:	fff78713          	addi	a4,a5,-1
   10698:	fb042783          	lw	a5,-80(s0)
   1069c:	00e7a023          	sw	a4,0(a5)
   106a0:	fb042783          	lw	a5,-80(s0)
   106a4:	0007a783          	lw	a5,0(a5)
   106a8:	00178793          	addi	a5,a5,1
   106ac:	00279793          	slli	a5,a5,0x2
   106b0:	fe442703          	lw	a4,-28(s0)
   106b4:	00f707b3          	add	a5,a4,a5
   106b8:	faf42023          	sw	a5,-96(s0)
   106bc:	fac42783          	lw	a5,-84(s0)
   106c0:	0007a783          	lw	a5,0(a5)
   106c4:	fff78713          	addi	a4,a5,-1
   106c8:	fac42783          	lw	a5,-84(s0)
   106cc:	00e7a023          	sw	a4,0(a5)
   106d0:	fac42783          	lw	a5,-84(s0)
   106d4:	0007a783          	lw	a5,0(a5)
   106d8:	00178793          	addi	a5,a5,1
   106dc:	00279793          	slli	a5,a5,0x2
   106e0:	fe442703          	lw	a4,-28(s0)
   106e4:	00f707b3          	add	a5,a4,a5
   106e8:	f8f42e23          	sw	a5,-100(s0)
   106ec:	fa842783          	lw	a5,-88(s0)
   106f0:	0007a783          	lw	a5,0(a5)
   106f4:	fff78713          	addi	a4,a5,-1
   106f8:	fa842783          	lw	a5,-88(s0)
   106fc:	00e7a023          	sw	a4,0(a5)
   10700:	fa842783          	lw	a5,-88(s0)
   10704:	0007a783          	lw	a5,0(a5)
   10708:	00178793          	addi	a5,a5,1
   1070c:	00279793          	slli	a5,a5,0x2
   10710:	fe442703          	lw	a4,-28(s0)
   10714:	00f707b3          	add	a5,a4,a5
   10718:	f8f42c23          	sw	a5,-104(s0)
   1071c:	fa442783          	lw	a5,-92(s0)
   10720:	0007a783          	lw	a5,0(a5)
   10724:	fff78713          	addi	a4,a5,-1
   10728:	fa442783          	lw	a5,-92(s0)
   1072c:	00e7a023          	sw	a4,0(a5)
   10730:	fa442783          	lw	a5,-92(s0)
   10734:	0007a783          	lw	a5,0(a5)
   10738:	00178793          	addi	a5,a5,1
   1073c:	00279793          	slli	a5,a5,0x2
   10740:	fe442703          	lw	a4,-28(s0)
   10744:	00f707b3          	add	a5,a4,a5
   10748:	f8f42a23          	sw	a5,-108(s0)
   1074c:	fa042783          	lw	a5,-96(s0)
   10750:	ffc78793          	addi	a5,a5,-4
   10754:	fc042703          	lw	a4,-64(s0)
   10758:	00e7a023          	sw	a4,0(a5)
   1075c:	f9c42783          	lw	a5,-100(s0)
   10760:	ffc78793          	addi	a5,a5,-4
   10764:	fbc42703          	lw	a4,-68(s0)
   10768:	00e7a023          	sw	a4,0(a5)
   1076c:	f9842783          	lw	a5,-104(s0)
   10770:	ffc78793          	addi	a5,a5,-4
   10774:	fb842703          	lw	a4,-72(s0)
   10778:	00e7a023          	sw	a4,0(a5)
   1077c:	f9442783          	lw	a5,-108(s0)
   10780:	ffc78793          	addi	a5,a5,-4
   10784:	fb442703          	lw	a4,-76(s0)
   10788:	00e7a023          	sw	a4,0(a5)
   1078c:	fe042783          	lw	a5,-32(s0)
   10790:	ff078793          	addi	a5,a5,-16
   10794:	fef42023          	sw	a5,-32(s0)
   10798:	fe842783          	lw	a5,-24(s0)
   1079c:	00c78793          	addi	a5,a5,12
   107a0:	fe042703          	lw	a4,-32(s0)
   107a4:	e2f77ce3          	bgeu	a4,a5,105dc <sort+0x344>
   107a8:	0580006f          	j	10800 <sort+0x568>
   107ac:	fe042783          	lw	a5,-32(s0)
   107b0:	0007a703          	lw	a4,0(a5)
   107b4:	fec42783          	lw	a5,-20(s0)
   107b8:	00f757b3          	srl	a5,a4,a5
   107bc:	0ff7f793          	zext.b	a5,a5
   107c0:	00279793          	slli	a5,a5,0x2
   107c4:	fd442703          	lw	a4,-44(s0)
   107c8:	00f707b3          	add	a5,a4,a5
   107cc:	0007a703          	lw	a4,0(a5)
   107d0:	fff70713          	addi	a4,a4,-1
   107d4:	00e7a023          	sw	a4,0(a5)
   107d8:	0007a783          	lw	a5,0(a5)
   107dc:	00279793          	slli	a5,a5,0x2
   107e0:	fe442703          	lw	a4,-28(s0)
   107e4:	00f707b3          	add	a5,a4,a5
   107e8:	fe042703          	lw	a4,-32(s0)
   107ec:	00072703          	lw	a4,0(a4)
   107f0:	00e7a023          	sw	a4,0(a5)
   107f4:	fe042783          	lw	a5,-32(s0)
   107f8:	ffc78793          	addi	a5,a5,-4
   107fc:	fef42023          	sw	a5,-32(s0)
   10800:	fe042703          	lw	a4,-32(s0)
   10804:	fe842783          	lw	a5,-24(s0)
   10808:	faf772e3          	bgeu	a4,a5,107ac <sort+0x514>
   1080c:	fe842783          	lw	a5,-24(s0)
   10810:	f8f42823          	sw	a5,-112(s0)
   10814:	fe442783          	lw	a5,-28(s0)
   10818:	fef42423          	sw	a5,-24(s0)
   1081c:	f9042783          	lw	a5,-112(s0)
   10820:	fef42223          	sw	a5,-28(s0)
   10824:	fec42783          	lw	a5,-20(s0)
   10828:	00878793          	addi	a5,a5,8
   1082c:	fef42623          	sw	a5,-20(s0)
   10830:	fec42703          	lw	a4,-20(s0)
   10834:	01f00793          	li	a5,31
   10838:	aae7f2e3          	bgeu	a5,a4,102dc <sort+0x44>
   1083c:	fe842703          	lw	a4,-24(s0)
   10840:	b8842783          	lw	a5,-1144(s0)
   10844:	00f70e63          	beq	a4,a5,10860 <sort+0x5c8>
   10848:	b8c42783          	lw	a5,-1140(s0)
   1084c:	00279793          	slli	a5,a5,0x2
   10850:	00078613          	mv	a2,a5
   10854:	fe442583          	lw	a1,-28(s0)
   10858:	fe842503          	lw	a0,-24(s0)
   1085c:	1c0000ef          	jal	ra,10a1c <memcpy>
   10860:	00000013          	nop
   10864:	47c12083          	lw	ra,1148(sp)
   10868:	47812403          	lw	s0,1144(sp)
   1086c:	48010113          	addi	sp,sp,1152
   10870:	00008067          	ret

00010874 <main>:
   10874:	fe010113          	addi	sp,sp,-32
   10878:	00112e23          	sw	ra,28(sp)
   1087c:	00812c23          	sw	s0,24(sp)
   10880:	02010413          	addi	s0,sp,32
   10884:	fea42623          	sw	a0,-20(s0)
   10888:	feb42423          	sw	a1,-24(s0)
   1088c:	00005617          	auipc	a2,0x5
   10890:	bd460613          	addi	a2,a2,-1068 # 15460 <scratch.2025>
   10894:	00000597          	auipc	a1,0x0
   10898:	77c58593          	addi	a1,a1,1916 # 11010 <input_data>
   1089c:	000017b7          	lui	a5,0x1
   108a0:	80078513          	addi	a0,a5,-2048 # 800 <register_fini-0xf874>
   108a4:	9f5ff0ef          	jal	ra,10298 <sort>
   108a8:	00002617          	auipc	a2,0x2
   108ac:	76860613          	addi	a2,a2,1896 # 13010 <verify_data>
   108b0:	00000597          	auipc	a1,0x0
   108b4:	76058593          	addi	a1,a1,1888 # 11010 <input_data>
   108b8:	000017b7          	lui	a5,0x1
   108bc:	80078513          	addi	a0,a5,-2048 # 800 <register_fini-0xf874>
   108c0:	88dff0ef          	jal	ra,1014c <verify>
   108c4:	00050793          	mv	a5,a0
   108c8:	00078513          	mv	a0,a5
   108cc:	01c12083          	lw	ra,28(sp)
   108d0:	01812403          	lw	s0,24(sp)
   108d4:	02010113          	addi	sp,sp,32
   108d8:	00008067          	ret

000108dc <atexit>:
   108dc:	00050593          	mv	a1,a0
   108e0:	00000693          	li	a3,0
   108e4:	00000613          	li	a2,0
   108e8:	00000513          	li	a0,0
   108ec:	3280006f          	j	10c14 <__register_exitproc>

000108f0 <exit>:
   108f0:	ff010113          	addi	sp,sp,-16
   108f4:	00000593          	li	a1,0
   108f8:	00812423          	sw	s0,8(sp)
   108fc:	00112623          	sw	ra,12(sp)
   10900:	00050413          	mv	s0,a0
   10904:	3b0000ef          	jal	ra,10cb4 <__call_exitprocs>
   10908:	00005797          	auipc	a5,0x5
   1090c:	b3078793          	addi	a5,a5,-1232 # 15438 <_global_impure_ptr>
   10910:	0007a503          	lw	a0,0(a5)
   10914:	03c52783          	lw	a5,60(a0)
   10918:	00078463          	beqz	a5,10920 <exit+0x30>
   1091c:	000780e7          	jalr	a5
   10920:	00040513          	mv	a0,s0
   10924:	4b0000ef          	jal	ra,10dd4 <_exit>

00010928 <__libc_fini_array>:
   10928:	ff010113          	addi	sp,sp,-16
   1092c:	00812423          	sw	s0,8(sp)
   10930:	00000797          	auipc	a5,0x0
   10934:	6dc78793          	addi	a5,a5,1756 # 1100c <__do_global_dtors_aux_fini_array_entry>
   10938:	00000417          	auipc	s0,0x0
   1093c:	6d840413          	addi	s0,s0,1752 # 11010 <input_data>
   10940:	40f40433          	sub	s0,s0,a5
   10944:	00112623          	sw	ra,12(sp)
   10948:	00912223          	sw	s1,4(sp)
   1094c:	40245413          	srai	s0,s0,0x2
   10950:	02040263          	beqz	s0,10974 <__libc_fini_array+0x4c>
   10954:	00241493          	slli	s1,s0,0x2
   10958:	ffc48493          	addi	s1,s1,-4
   1095c:	00f484b3          	add	s1,s1,a5
   10960:	0004a783          	lw	a5,0(s1)
   10964:	fff40413          	addi	s0,s0,-1
   10968:	ffc48493          	addi	s1,s1,-4
   1096c:	000780e7          	jalr	a5
   10970:	fe0418e3          	bnez	s0,10960 <__libc_fini_array+0x38>
   10974:	00c12083          	lw	ra,12(sp)
   10978:	00812403          	lw	s0,8(sp)
   1097c:	00412483          	lw	s1,4(sp)
   10980:	01010113          	addi	sp,sp,16
   10984:	00008067          	ret

00010988 <__libc_init_array>:
   10988:	ff010113          	addi	sp,sp,-16
   1098c:	00812423          	sw	s0,8(sp)
   10990:	01212023          	sw	s2,0(sp)
   10994:	00000417          	auipc	s0,0x0
   10998:	67040413          	addi	s0,s0,1648 # 11004 <__init_array_start>
   1099c:	00000917          	auipc	s2,0x0
   109a0:	66890913          	addi	s2,s2,1640 # 11004 <__init_array_start>
   109a4:	40890933          	sub	s2,s2,s0
   109a8:	00112623          	sw	ra,12(sp)
   109ac:	00912223          	sw	s1,4(sp)
   109b0:	40295913          	srai	s2,s2,0x2
   109b4:	00090e63          	beqz	s2,109d0 <__libc_init_array+0x48>
   109b8:	00000493          	li	s1,0
   109bc:	00042783          	lw	a5,0(s0)
   109c0:	00148493          	addi	s1,s1,1
   109c4:	00440413          	addi	s0,s0,4
   109c8:	000780e7          	jalr	a5
   109cc:	fe9918e3          	bne	s2,s1,109bc <__libc_init_array+0x34>
   109d0:	00000417          	auipc	s0,0x0
   109d4:	63440413          	addi	s0,s0,1588 # 11004 <__init_array_start>
   109d8:	00000917          	auipc	s2,0x0
   109dc:	63490913          	addi	s2,s2,1588 # 1100c <__do_global_dtors_aux_fini_array_entry>
   109e0:	40890933          	sub	s2,s2,s0
   109e4:	40295913          	srai	s2,s2,0x2
   109e8:	00090e63          	beqz	s2,10a04 <__libc_init_array+0x7c>
   109ec:	00000493          	li	s1,0
   109f0:	00042783          	lw	a5,0(s0)
   109f4:	00148493          	addi	s1,s1,1
   109f8:	00440413          	addi	s0,s0,4
   109fc:	000780e7          	jalr	a5
   10a00:	fe9918e3          	bne	s2,s1,109f0 <__libc_init_array+0x68>
   10a04:	00c12083          	lw	ra,12(sp)
   10a08:	00812403          	lw	s0,8(sp)
   10a0c:	00412483          	lw	s1,4(sp)
   10a10:	00012903          	lw	s2,0(sp)
   10a14:	01010113          	addi	sp,sp,16
   10a18:	00008067          	ret

00010a1c <memcpy>:
   10a1c:	00a5c7b3          	xor	a5,a1,a0
   10a20:	0037f793          	andi	a5,a5,3
   10a24:	00c508b3          	add	a7,a0,a2
   10a28:	06079263          	bnez	a5,10a8c <memcpy+0x70>
   10a2c:	00300793          	li	a5,3
   10a30:	04c7fe63          	bgeu	a5,a2,10a8c <memcpy+0x70>
   10a34:	00357793          	andi	a5,a0,3
   10a38:	00050713          	mv	a4,a0
   10a3c:	06079863          	bnez	a5,10aac <memcpy+0x90>
   10a40:	ffc8f613          	andi	a2,a7,-4
   10a44:	fe060793          	addi	a5,a2,-32
   10a48:	08f76c63          	bltu	a4,a5,10ae0 <memcpy+0xc4>
   10a4c:	02c77c63          	bgeu	a4,a2,10a84 <memcpy+0x68>
   10a50:	00058693          	mv	a3,a1
   10a54:	00070793          	mv	a5,a4
   10a58:	0006a803          	lw	a6,0(a3)
   10a5c:	00478793          	addi	a5,a5,4
   10a60:	00468693          	addi	a3,a3,4
   10a64:	ff07ae23          	sw	a6,-4(a5)
   10a68:	fec7e8e3          	bltu	a5,a2,10a58 <memcpy+0x3c>
   10a6c:	fff60793          	addi	a5,a2,-1
   10a70:	40e787b3          	sub	a5,a5,a4
   10a74:	ffc7f793          	andi	a5,a5,-4
   10a78:	00478793          	addi	a5,a5,4
   10a7c:	00f70733          	add	a4,a4,a5
   10a80:	00f585b3          	add	a1,a1,a5
   10a84:	01176863          	bltu	a4,a7,10a94 <memcpy+0x78>
   10a88:	00008067          	ret
   10a8c:	00050713          	mv	a4,a0
   10a90:	ff157ce3          	bgeu	a0,a7,10a88 <memcpy+0x6c>
   10a94:	0005c783          	lbu	a5,0(a1)
   10a98:	00170713          	addi	a4,a4,1
   10a9c:	00158593          	addi	a1,a1,1
   10aa0:	fef70fa3          	sb	a5,-1(a4)
   10aa4:	ff1768e3          	bltu	a4,a7,10a94 <memcpy+0x78>
   10aa8:	00008067          	ret
   10aac:	0005c683          	lbu	a3,0(a1)
   10ab0:	00170713          	addi	a4,a4,1
   10ab4:	00377793          	andi	a5,a4,3
   10ab8:	fed70fa3          	sb	a3,-1(a4)
   10abc:	00158593          	addi	a1,a1,1
   10ac0:	f80780e3          	beqz	a5,10a40 <memcpy+0x24>
   10ac4:	0005c683          	lbu	a3,0(a1)
   10ac8:	00170713          	addi	a4,a4,1
   10acc:	00377793          	andi	a5,a4,3
   10ad0:	fed70fa3          	sb	a3,-1(a4)
   10ad4:	00158593          	addi	a1,a1,1
   10ad8:	fc079ae3          	bnez	a5,10aac <memcpy+0x90>
   10adc:	f65ff06f          	j	10a40 <memcpy+0x24>
   10ae0:	0005a683          	lw	a3,0(a1)
   10ae4:	0045a283          	lw	t0,4(a1)
   10ae8:	0085af83          	lw	t6,8(a1)
   10aec:	00c5af03          	lw	t5,12(a1)
   10af0:	0105ae83          	lw	t4,16(a1)
   10af4:	0145ae03          	lw	t3,20(a1)
   10af8:	0185a303          	lw	t1,24(a1)
   10afc:	01c5a803          	lw	a6,28(a1)
   10b00:	02458593          	addi	a1,a1,36
   10b04:	00d72023          	sw	a3,0(a4)
   10b08:	ffc5a683          	lw	a3,-4(a1)
   10b0c:	00572223          	sw	t0,4(a4)
   10b10:	01f72423          	sw	t6,8(a4)
   10b14:	01e72623          	sw	t5,12(a4)
   10b18:	01d72823          	sw	t4,16(a4)
   10b1c:	01c72a23          	sw	t3,20(a4)
   10b20:	00672c23          	sw	t1,24(a4)
   10b24:	01072e23          	sw	a6,28(a4)
   10b28:	02470713          	addi	a4,a4,36
   10b2c:	fed72e23          	sw	a3,-4(a4)
   10b30:	faf768e3          	bltu	a4,a5,10ae0 <memcpy+0xc4>
   10b34:	f19ff06f          	j	10a4c <memcpy+0x30>

00010b38 <memset>:
   10b38:	00f00313          	li	t1,15
   10b3c:	00050713          	mv	a4,a0
   10b40:	02c37e63          	bgeu	t1,a2,10b7c <memset+0x44>
   10b44:	00f77793          	andi	a5,a4,15
   10b48:	0a079063          	bnez	a5,10be8 <memset+0xb0>
   10b4c:	08059263          	bnez	a1,10bd0 <memset+0x98>
   10b50:	ff067693          	andi	a3,a2,-16
   10b54:	00f67613          	andi	a2,a2,15
   10b58:	00e686b3          	add	a3,a3,a4
   10b5c:	00b72023          	sw	a1,0(a4)
   10b60:	00b72223          	sw	a1,4(a4)
   10b64:	00b72423          	sw	a1,8(a4)
   10b68:	00b72623          	sw	a1,12(a4)
   10b6c:	01070713          	addi	a4,a4,16
   10b70:	fed766e3          	bltu	a4,a3,10b5c <memset+0x24>
   10b74:	00061463          	bnez	a2,10b7c <memset+0x44>
   10b78:	00008067          	ret
   10b7c:	40c306b3          	sub	a3,t1,a2
   10b80:	00269693          	slli	a3,a3,0x2
   10b84:	00000297          	auipc	t0,0x0
   10b88:	005686b3          	add	a3,a3,t0
   10b8c:	00c68067          	jr	12(a3)
   10b90:	00b70723          	sb	a1,14(a4)
   10b94:	00b706a3          	sb	a1,13(a4)
   10b98:	00b70623          	sb	a1,12(a4)
   10b9c:	00b705a3          	sb	a1,11(a4)
   10ba0:	00b70523          	sb	a1,10(a4)
   10ba4:	00b704a3          	sb	a1,9(a4)
   10ba8:	00b70423          	sb	a1,8(a4)
   10bac:	00b703a3          	sb	a1,7(a4)
   10bb0:	00b70323          	sb	a1,6(a4)
   10bb4:	00b702a3          	sb	a1,5(a4)
   10bb8:	00b70223          	sb	a1,4(a4)
   10bbc:	00b701a3          	sb	a1,3(a4)
   10bc0:	00b70123          	sb	a1,2(a4)
   10bc4:	00b700a3          	sb	a1,1(a4)
   10bc8:	00b70023          	sb	a1,0(a4)
   10bcc:	00008067          	ret
   10bd0:	0ff5f593          	zext.b	a1,a1
   10bd4:	00859693          	slli	a3,a1,0x8
   10bd8:	00d5e5b3          	or	a1,a1,a3
   10bdc:	01059693          	slli	a3,a1,0x10
   10be0:	00d5e5b3          	or	a1,a1,a3
   10be4:	f6dff06f          	j	10b50 <memset+0x18>
   10be8:	00279693          	slli	a3,a5,0x2
   10bec:	00000297          	auipc	t0,0x0
   10bf0:	005686b3          	add	a3,a3,t0
   10bf4:	00008293          	mv	t0,ra
   10bf8:	fa0680e7          	jalr	-96(a3)
   10bfc:	00028093          	mv	ra,t0
   10c00:	ff078793          	addi	a5,a5,-16
   10c04:	40f70733          	sub	a4,a4,a5
   10c08:	00f60633          	add	a2,a2,a5
   10c0c:	f6c378e3          	bgeu	t1,a2,10b7c <memset+0x44>
   10c10:	f3dff06f          	j	10b4c <memset+0x14>

00010c14 <__register_exitproc>:
   10c14:	00005797          	auipc	a5,0x5
   10c18:	82478793          	addi	a5,a5,-2012 # 15438 <_global_impure_ptr>
   10c1c:	0007a703          	lw	a4,0(a5)
   10c20:	14872783          	lw	a5,328(a4)
   10c24:	04078c63          	beqz	a5,10c7c <__register_exitproc+0x68>
   10c28:	0047a703          	lw	a4,4(a5)
   10c2c:	01f00813          	li	a6,31
   10c30:	06e84e63          	blt	a6,a4,10cac <__register_exitproc+0x98>
   10c34:	00271813          	slli	a6,a4,0x2
   10c38:	02050663          	beqz	a0,10c64 <__register_exitproc+0x50>
   10c3c:	01078333          	add	t1,a5,a6
   10c40:	08c32423          	sw	a2,136(t1) # 101c8 <verify+0x7c>
   10c44:	1887a883          	lw	a7,392(a5)
   10c48:	00100613          	li	a2,1
   10c4c:	00e61633          	sll	a2,a2,a4
   10c50:	00c8e8b3          	or	a7,a7,a2
   10c54:	1917a423          	sw	a7,392(a5)
   10c58:	10d32423          	sw	a3,264(t1)
   10c5c:	00200693          	li	a3,2
   10c60:	02d50463          	beq	a0,a3,10c88 <__register_exitproc+0x74>
   10c64:	00170713          	addi	a4,a4,1
   10c68:	00e7a223          	sw	a4,4(a5)
   10c6c:	010787b3          	add	a5,a5,a6
   10c70:	00b7a423          	sw	a1,8(a5)
   10c74:	00000513          	li	a0,0
   10c78:	00008067          	ret
   10c7c:	14c70793          	addi	a5,a4,332
   10c80:	14f72423          	sw	a5,328(a4)
   10c84:	fa5ff06f          	j	10c28 <__register_exitproc+0x14>
   10c88:	18c7a683          	lw	a3,396(a5)
   10c8c:	00170713          	addi	a4,a4,1
   10c90:	00e7a223          	sw	a4,4(a5)
   10c94:	00c6e633          	or	a2,a3,a2
   10c98:	18c7a623          	sw	a2,396(a5)
   10c9c:	010787b3          	add	a5,a5,a6
   10ca0:	00b7a423          	sw	a1,8(a5)
   10ca4:	00000513          	li	a0,0
   10ca8:	00008067          	ret
   10cac:	fff00513          	li	a0,-1
   10cb0:	00008067          	ret

00010cb4 <__call_exitprocs>:
   10cb4:	fd010113          	addi	sp,sp,-48
   10cb8:	00004797          	auipc	a5,0x4
   10cbc:	78078793          	addi	a5,a5,1920 # 15438 <_global_impure_ptr>
   10cc0:	01812423          	sw	s8,8(sp)
   10cc4:	0007ac03          	lw	s8,0(a5)
   10cc8:	01312e23          	sw	s3,28(sp)
   10ccc:	01412c23          	sw	s4,24(sp)
   10cd0:	01512a23          	sw	s5,20(sp)
   10cd4:	01612823          	sw	s6,16(sp)
   10cd8:	02112623          	sw	ra,44(sp)
   10cdc:	02812423          	sw	s0,40(sp)
   10ce0:	02912223          	sw	s1,36(sp)
   10ce4:	03212023          	sw	s2,32(sp)
   10ce8:	01712623          	sw	s7,12(sp)
   10cec:	00050a93          	mv	s5,a0
   10cf0:	00058b13          	mv	s6,a1
   10cf4:	00100a13          	li	s4,1
   10cf8:	fff00993          	li	s3,-1
   10cfc:	148c2903          	lw	s2,328(s8)
   10d00:	02090863          	beqz	s2,10d30 <__call_exitprocs+0x7c>
   10d04:	00492483          	lw	s1,4(s2)
   10d08:	fff48413          	addi	s0,s1,-1
   10d0c:	02044263          	bltz	s0,10d30 <__call_exitprocs+0x7c>
   10d10:	00249493          	slli	s1,s1,0x2
   10d14:	009904b3          	add	s1,s2,s1
   10d18:	040b0463          	beqz	s6,10d60 <__call_exitprocs+0xac>
   10d1c:	1044a783          	lw	a5,260(s1)
   10d20:	05678063          	beq	a5,s6,10d60 <__call_exitprocs+0xac>
   10d24:	fff40413          	addi	s0,s0,-1
   10d28:	ffc48493          	addi	s1,s1,-4
   10d2c:	ff3416e3          	bne	s0,s3,10d18 <__call_exitprocs+0x64>
   10d30:	02c12083          	lw	ra,44(sp)
   10d34:	02812403          	lw	s0,40(sp)
   10d38:	02412483          	lw	s1,36(sp)
   10d3c:	02012903          	lw	s2,32(sp)
   10d40:	01c12983          	lw	s3,28(sp)
   10d44:	01812a03          	lw	s4,24(sp)
   10d48:	01412a83          	lw	s5,20(sp)
   10d4c:	01012b03          	lw	s6,16(sp)
   10d50:	00c12b83          	lw	s7,12(sp)
   10d54:	00812c03          	lw	s8,8(sp)
   10d58:	03010113          	addi	sp,sp,48
   10d5c:	00008067          	ret
   10d60:	00492783          	lw	a5,4(s2)
   10d64:	0044a683          	lw	a3,4(s1)
   10d68:	fff78793          	addi	a5,a5,-1
   10d6c:	04878a63          	beq	a5,s0,10dc0 <__call_exitprocs+0x10c>
   10d70:	0004a223          	sw	zero,4(s1)
   10d74:	fa0688e3          	beqz	a3,10d24 <__call_exitprocs+0x70>
   10d78:	18892783          	lw	a5,392(s2)
   10d7c:	008a1733          	sll	a4,s4,s0
   10d80:	00492b83          	lw	s7,4(s2)
   10d84:	00f777b3          	and	a5,a4,a5
   10d88:	00079e63          	bnez	a5,10da4 <__call_exitprocs+0xf0>
   10d8c:	000680e7          	jalr	a3
   10d90:	00492783          	lw	a5,4(s2)
   10d94:	f77794e3          	bne	a5,s7,10cfc <__call_exitprocs+0x48>
   10d98:	148c2783          	lw	a5,328(s8)
   10d9c:	f92784e3          	beq	a5,s2,10d24 <__call_exitprocs+0x70>
   10da0:	f5dff06f          	j	10cfc <__call_exitprocs+0x48>
   10da4:	18c92783          	lw	a5,396(s2)
   10da8:	0844a583          	lw	a1,132(s1)
   10dac:	00f77733          	and	a4,a4,a5
   10db0:	00071c63          	bnez	a4,10dc8 <__call_exitprocs+0x114>
   10db4:	000a8513          	mv	a0,s5
   10db8:	000680e7          	jalr	a3
   10dbc:	fd5ff06f          	j	10d90 <__call_exitprocs+0xdc>
   10dc0:	00892223          	sw	s0,4(s2)
   10dc4:	fb1ff06f          	j	10d74 <__call_exitprocs+0xc0>
   10dc8:	00058513          	mv	a0,a1
   10dcc:	000680e7          	jalr	a3
   10dd0:	fc1ff06f          	j	10d90 <__call_exitprocs+0xdc>

00010dd4 <_exit>:
   10dd4:	00000593          	li	a1,0
   10dd8:	00000613          	li	a2,0
   10ddc:	00000693          	li	a3,0
   10de0:	00000713          	li	a4,0
   10de4:	00000793          	li	a5,0
   10de8:	05d00893          	li	a7,93
   10dec:	00000073          	ecall
   10df0:	00054463          	bltz	a0,10df8 <_exit+0x24>
   10df4:	0000006f          	j	10df4 <_exit+0x20>
   10df8:	ff010113          	addi	sp,sp,-16
   10dfc:	00812423          	sw	s0,8(sp)
   10e00:	00050413          	mv	s0,a0
   10e04:	00112623          	sw	ra,12(sp)
   10e08:	40800433          	neg	s0,s0
   10e0c:	00c000ef          	jal	ra,10e18 <__errno>
   10e10:	00852023          	sw	s0,0(a0)
   10e14:	0000006f          	j	10e14 <_exit+0x40>

00010e18 <__errno>:
   10e18:	00004797          	auipc	a5,0x4
   10e1c:	62878793          	addi	a5,a5,1576 # 15440 <_impure_ptr>
   10e20:	0007a503          	lw	a0,0(a5)
   10e24:	00008067          	ret
